(lp1
S'http://www.sina.com.cn/mid/hot/2016-12-06/doc-ifxyiayr9202633.shtml'
p2
aS'http://www.sina.com.cn/mid/ask/2016-12-05/doc-ifxyiayr9109324.shtml'
p3
aS'http://ent.sina.com.cn/zl/discuss/2016-12-06/doc-ifxyiayq2471616.shtml'
p4
aS'http://ent.sina.com.cn/zl/bagua/2016-12-06/doc-ifxyiayr9209022.shtml'
p5
aS'http://finance.sina.com.cn/zl/china/2016-12-06/zl-ifxyiayr9218445.shtml'
p6
aS'http://fashion.sina.com.cn/zl/fashion/blog/2016-12-05/15276006/1738400994/679de4e20102wv77.shtml'
p7
aS'http://edu.sina.com.cn/zl/edu/2016-12-06/10164243.shtml'
p8
aS'http://finance.sina.com.cn/roll/2016-12-06/doc-ifxyhwyy0773496.shtml'
p9
aS'http://sports.sina.com.cn/basketball/nba/2016-12-06/doc-ifxyiayq2497782.shtml'
p10
aS'http://sports.sina.com.cn/basketball/nba/2016-12-06/doc-ifxyiayq2477156.shtml'
p11
aS'http://sports.sina.com.cn/basketball/nba/2016-12-06/doc-ifxyiayq2482732.shtml'
p12
aS'http://auto.sina.com.cn/service/q/2016-12-02/detail-ifxyiayr8809443.shtml'
p13
aS'http://news.sina.com.cn/s/wh/2016-12-06/doc-ifxyiayr9204159.shtml'
p14
aS'http://news.sina.com.cn/s/wh/2016-12-06/doc-ifxyhwyy0802164.shtml'
p15
aS'http://news.sina.com.cn/china/xlxw/2016-12-06/doc-ifxyiayr9286316.shtml'
p16
aS'http://news.sina.com.cn/china/xlxw/2016-12-06/doc-ifxyiayr9286699.shtml'
p17
aS'http://news.sina.com.cn/china/xlxw/2016-12-05/doc-ifxyiayr9154655.shtml'
p18
aS'http://news.sina.com.cn/c/2016-12-05/doc-ifxyhwyy0754705.shtml'
p19
aS'http://mil.news.sina.com.cn/china/2016-12-06/doc-ifxyiayq2508558.shtml'
p20
aS'http://news.sina.com.cn/w/sy/2016-12-06/doc-ifxyiayr9271530.shtml'
p21
aS'http://news.sina.com.cn/w/zx/2016-12-06/doc-ifxyiayq2509879.shtml'
p22
aS'http://news.sina.com.cn/c/nd/2016-12-06/doc-ifxyiayq2534247.shtml'
p23
aS'http://mil.news.sina.com.cn/china/2016-12-06/doc-ifxyiayq2509569.shtml'
p24
aS'http://news.sina.com.cn/w/sy/2016-12-06/doc-ifxyiayq2457972.shtml'
p25
aS'http://mil.news.sina.com.cn/jqs/2016-12-06/doc-ifxyiayq2534965.shtml'
p26
aS'http://news.sina.com.cn/c/nd/2016-12-06/doc-ifxyiayr9261214.shtml'
p27
aS'http://news.sina.com.cn/s/wh/2016-12-06/doc-ifxyiayq2505657.shtml'
p28
aS'http://news.sina.com.cn/o/2016-12-06/doc-ifxyhwyy0792634.shtml'
p29
aS'http://news.sina.com.cn/s/wh/2016-12-06/doc-ifxyhwyy0787649.shtml'
p30
aS'http://gd.sina.com.cn/news/s/2016-12-06/detail-ifxyiayr9192902.shtml'
p31
aS'http://finance.sina.com.cn/chanjing/gsnews/2016-12-06/doc-ifxyiayq2480433.shtml'
p32
aS'http://finance.sina.com.cn/stock/y/2016-12-06/doc-ifxyiayr9236455.shtml'
p33
aS'http://finance.sina.com.cn/roll/2016-12-06/doc-ifxyicnf1713101.shtml'
p34
aS'http://finance.sina.com.cn/stock/zldx/2016-12-06/doc-ifxyiayr9274872.shtml'
p35
aS'http://tech.sina.com.cn/i/2016-12-06/doc-ifxyiayr9197084.shtml'
p36
aS'http://tech.sina.com.cn/i/2016-12-06/doc-ifxyicnf1669076.shtml'
p37
aS'http://tech.sina.com.cn/i/2016-12-06/doc-ifxyiayr9251822.shtml'
p38
aS'http://auto.sina.com.cn/newcar/j/2016-12-06/detail-ifxyiayr9203256.shtml'
p39
aS'http://auto.sina.com.cn/mp/w/2016-12-05/detail-ifxyhwyy0744012.shtml'
p40
aS'http://news.sina.com.cn/o/2016-12-06/doc-ifxyhwyy0779770.shtml'
p41
aS'http://news.sina.com.cn/c/nd/2016-12-06/doc-ifxyiayq2476672.shtml'
p42
aS'http://news.sina.com.cn/c/nd/2016-12-06/doc-ifxyiayq2434087.shtml'
p43
aS'http://news.sina.com.cn/c/2016-12-06/doc-ifxyhwyy0769725.shtml'
p44
aS'http://news.sina.com.cn/c/nd/2016-12-05/doc-ifxyiayr9172445.shtml'
p45
aS'http://news.sina.com.cn/o/2016-12-06/doc-ifxyicnf1666964.shtml'
p46
aS'http://news.sina.com.cn/o/2016-12-06/doc-ifxyicnf1661714.shtml'
p47
aS'http://news.sina.com.cn/o/2016-12-06/doc-ifxyhwyy0772193.shtml'
p48
aS'http://finance.sina.com.cn/china/gncj/2016-12-06/doc-ifxyiayq2498605.shtml'
p49
aS'http://finance.sina.com.cn/roll/2016-12-06/doc-ifxyicnf1659560.shtml'
p50
aS'http://sports.sina.com.cn/basketball/nba/2016-12-06/doc-ifxyiayq2480537.shtml'
p51
aS'http://ent.sina.com.cn/m/c/2016-12-05/doc-ifxyiayq2417459.shtml'
p52
aS'http://ent.sina.com.cn/y/yneidi/2016-12-06/doc-ifxyiayq2472593.shtml'
p53
aS'http://tech.sina.com.cn/i/2016-12-06/doc-ifxyiayr9174473.shtml'
p54
aS'http://fashion.sina.com.cn/s/je/2016-12-06/0654/doc-ifxyhwyy0741870.shtml'
p55
aS'http://eladies.sina.com.cn/feel/xinli/2016-12-06/0712/doc-ifxyhwyy0569967.shtml'
p56
aS'http://eladies.sina.com.cn/feel/xinli/2016-12-06/0712/doc-ifxyhwyy0699688.shtml'
p57
aS'http://edu.sina.com.cn/gaokao/2016-12-06/doc-ifxyiayq2518852.shtml'
p58
aS'http://edu.sina.com.cn/zxx/2016-12-06/doc-ifxyiayr9192305.shtml'
p59
aS'http://baby.sina.com.cn/news/2016-12-06/doc-ifxyiayr9164259.shtml'
p60
aS'http://health.sina.com.cn/d/2016-12-06/doc-ifxyiayq2383618.shtml'
p61
aS'http://health.sina.com.cn/hc/2016-12-06/doc-ifxyiayq2334374.shtml'
p62
aS'http://news.sina.com.cn/c/nd/2016-12-06/doc-ifxyiayq2431460.shtml'
p63
aS'http://news.sina.com.cn/o/2016-12-06/doc-ifxyicnf1660666.shtml'
p64
aS'http://news.sina.com.cn/s/wh/2016-12-06/doc-ifxyiayq2427791.shtml'
p65
aS'http://news.sina.com.cn/s/wh/2016-12-06/doc-ifxyiayr9175067.shtml'
p66
aS'http://news.sina.com.cn/c/nd/2016-12-05/doc-ifxyiayq2406612.shtml'
p67
aS'http://news.sina.com.cn/o/2016-12-06/doc-ifxyhwyy0792631.shtml'
p68
aS'http://news.sina.com.cn/o/2016-12-06/doc-ifxyicnf1661809.shtml'
p69
aS'http://news.sina.com.cn/s/wh/2016-12-06/doc-ifxyiayr9176967.shtml'
p70
aS'http://finance.sina.com.cn/consume/puguangtai/2016-12-06/doc-ifxyiayq2498279.shtml'
p71
aS'http://finance.sina.com.cn/roll/2016-12-06/doc-ifxyiayq2429513.shtml'
p72
aS'http://sports.sina.com.cn/g/laliga/2016-12-06/doc-ifxyiayr9178936.shtml'
p73
aS'http://sports.sina.com.cn/g/pl/2016-12-06/doc-ifxyiayr9214838.shtml'
p74
aS'http://sports.sina.com.cn/g/laliga/2016-12-06/doc-ifxyiayq2481285.shtml'
p75
aS'http://sports.sina.com.cn/g/laliga/2016-12-06/doc-ifxyiayr9198642.shtml'
p76
aS'http://ent.sina.com.cn/s/m/2016-12-06/doc-ifxyiayr9173802.shtml'
p77
aS'http://ent.sina.com.cn/z/v/2016-12-06/doc-ifxyiayr9219709.shtml'
p78
aS'http://tech.sina.com.cn/t/2016-12-06/doc-ifxyiayr9201935.shtml'
p79
aS'http://fashion.sina.com.cn/s/in/2016-12-06/0654/doc-ifxyiayq2341121.shtml'
p80
aS'http://fashion.sina.com.cn/d/ta/2016-12-06/0703/doc-ifxyiayq2067605.shtml'
p81
aS'http://fashion.sina.com.cn/d/ta/2016-12-05/0721/doc-ifxyiayr8826121.shtml'
p82
aS'http://eladies.sina.com.cn/feel/xinli/2016-12-05/0726/doc-ifxyiayr8825669.shtml'
p83
aS'http://eladies.sina.com.cn/feel/xinli/2016-12-05/0726/doc-ifxyiayr8832227.shtml'
p84
aS'http://eladies.sina.com.cn/feel/xinli/2016-12-05/0726/doc-ifxyiayr8835583.shtml'
p85
aS'http://edu.sina.com.cn/l/2016-12-06/doc-ifxyiayq2448099.shtml'
p86
aS'http://edu.sina.com.cn/gaokao/2016-12-06/doc-ifxyiayr9193332.shtml'
p87
aS'http://baby.sina.com.cn/health/mmjk/hhyq/2016-12-06/doc-ifxyiayq2252409.shtml'
p88
aS'http://health.sina.com.cn/hc/2016-12-06/doc-ifxyiayr9103906.shtml'
p89
aS'http://health.sina.com.cn/hc/2016-12-06/doc-ifxyiayq2334435.shtml'
p90
aS'http://health.sina.com.cn/d/2016-12-06/doc-ifxyiayq2383441.shtml'
p91
aS'http://www.sina.com.cn/mid/hot/2016-12-01/doc-ifxyiayq1943894.shtml'
p92
aS'http://sports.sina.com.cn/basketball/nba/2016-12-06/doc-ifxyiayq2498280.shtml'
p93
aS'http://sports.sina.com.cn/basketball/nba/2016-12-06/doc-ifxyiayr9239187.shtml'
p94
aS'http://sports.sina.com.cn/china/j/2016-12-06/doc-ifxyiayr9210335.shtml'
p95
aS'http://sports.sina.com.cn/tennis/wta/2016-12-06/doc-ifxyiayq2359397.shtml'
p96
aS'http://sports.sina.com.cn/basketball/nba/2016-12-06/doc-ifxyiayr9224044.shtml'
p97
aS'http://sports.sina.com.cn/basketball/nba/2016-12-06/doc-ifxyiayq2435835.shtml'
p98
aS'http://sports.sina.com.cn/basketball/nba/2016-12-06/doc-ifxyiayq2442086.shtml'
p99
aS'http://sports.sina.com.cn/g/laliga/2016-12-06/doc-ifxyiayr9217833.shtml'
p100
aS'http://sports.sina.com.cn/g/seriea/2016-12-06/doc-ifxyiayr9213069.shtml'
p101
aS'http://sports.sina.com.cn/china/j/2016-12-06/doc-ifxyiayr9204583.shtml'
p102
aS'http://sports.sina.com.cn/cba/2016-12-06/doc-ifxyiayq2463262.shtml'
p103
aS'http://sports.sina.com.cn/others/badmin/2016-12-06/doc-ifxyiayr9195143.shtml'
p104
aS'http://sports.sina.com.cn/basketball/nba/2016-12-06/doc-ifxyiayq2501421.shtml'
p105
aS'http://sports.sina.com.cn/basketball/nba/2016-12-06/doc-ifxyiayq2497684.shtml'
p106
aS'http://sports.sina.com.cn/basketball/nba/2016-12-06/doc-ifxyiayr9241717.shtml'
p107
aS'http://sports.sina.com.cn/basketball/nba/2016-12-06/doc-ifxyiayr9239577.shtml'
p108
aS'http://sports.sina.com.cn/basketball/nba/2016-12-06/doc-ifxyiayq2485500.shtml'
p109
aS'http://sports.sina.com.cn/basketball/nba/2016-12-06/doc-ifxyiayr9225308.shtml'
p110
aS'http://sports.sina.com.cn/basketball/nba/2016-12-06/doc-ifxyiayq2485362.shtml'
p111
aS'http://sports.sina.com.cn/basketball/nba/2016-12-06/doc-ifxyiayq2483528.shtml'
p112
aS'http://sports.sina.com.cn/basketball/nba/2016-12-06/doc-ifxyiayr9229855.shtml'
p113
aS'http://sports.sina.com.cn/l/2016-12-06/doc-ifxyiayr9202221.shtml'
p114
aS'http://auto.sina.com.cn/newcar/j/2016-12-02/detail-ifxyiayq2079622.shtml'
p115
aS'http://auto.sina.com.cn/newcar/d/2016-12-04/detail-ifxyiayq2233940.shtml'
p116
aS'http://auto.sina.com.cn/video/pangge/2016-12-05/detail-ifxyiayr9040575.shtml'
p117
aS'http://auto.sina.com.cn/newcar/x/2016-12-05/detail-ifxyiayq2362867.shtml'
p118
aS'http://auto.sina.com.cn/newcar/d/2016-12-06/detail-ifxyiayq2474310.shtml'
p119
aS'http://auto.sina.com.cn/newcar/j/2016-12-06/detail-ifxyiayq2376937.shtml'
p120
aS'http://auto.sina.com.cn/newcar/j/2016-12-06/detail-ifxyiayq2463171.shtml'
p121
aS'http://auto.sina.com.cn/newcar/h/2016-12-02/detail-ifxyiayr8820843.shtml'
p122
aS'http://auto.sina.com.cn/service/q/2016-12-05/detail-ifxyiayr9079467.shtml'
p123
aS'http://auto.sina.com.cn/mp/w/2016-12-05/detail-ifxyhwyy0743896.shtml'
p124
aS'http://auto.sina.com.cn/mp/w/2016-12-05/detail-ifxyhwyy0743846.shtml'
p125
aS'http://auto.sina.com.cn/review/tiyan/2016-12-01/detail-ifxyiayr8635539.shtml'
p126
aS'http://ent.sina.com.cn/s/m/2016-12-06/doc-ifxyiayr9242333.shtml'
p127
aS'http://ent.sina.com.cn/v/m/2016-12-05/doc-ifxyiayr9151961.shtml'
p128
aS'http://ent.sina.com.cn/v/m/2016-12-05/doc-ifxyiayr9158775.shtml'
p129
aS'http://ent.sina.com.cn/s/m/2016-12-06/doc-ifxyiayq2474705.shtml'
p130
aS'http://ent.sina.com.cn/z/v/2016-12-06/doc-ifxyiayr9255907.shtml'
p131
aS'http://ent.sina.com.cn/z/v/2016-12-06/doc-ifxyiayr9264243.shtml'
p132
aS'http://ent.sina.com.cn/m/c/2016-12-06/doc-ifxyiayq2527460.shtml'
p133
aS'http://ent.sina.com.cn/m/f/2016-12-06/doc-ifxyiayr9253173.shtml'
p134
aS'http://ent.sina.com.cn/s/m/2016-12-06/doc-ifxyiayr9172875.shtml'
p135
aS'http://ent.sina.com.cn/music/zy/2016-12-06/doc-ifxyiayr9211465.shtml'
p136
aS'http://ent.sina.com.cn/y/ygangtai/2016-12-06/doc-ifxyiayq2455698.shtml'
p137
aS'http://ent.sina.com.cn/z/v/2016-12-06/doc-ifxyiayr9212642.shtml'
p138
aS'http://ent.sina.com.cn/v/j/2016-12-06/doc-ifxyiayr9207466.shtml'
p139
aS'http://ent.sina.com.cn/m/f/2016-12-06/doc-ifxyiayq2500649.shtml'
p140
aS'http://ent.sina.com.cn/s/j/2016-12-05/doc-ifxyiayr9135308.shtml'
p141
aS'http://ent.sina.com.cn/s/h/2016-12-06/doc-ifxyiayr9200481.shtml'
p142
aS'http://ent.sina.com.cn/z/v/2016-12-06/doc-ifxyiayr9236449.shtml'
p143
aS'http://finance.sina.com.cn/roll/2016-12-06/doc-ifxyhwyy0830003.shtml'
p144
aS'http://finance.sina.com.cn/roll/2016-12-06/doc-ifxyicnf1659405.shtml'
p145
aS'http://finance.sina.com.cn/stock/t/2016-12-06/doc-ifxyicnf1659985.shtml'
p146
aS'http://finance.sina.com.cn/stock/t/2016-12-06/doc-ifxyhwyy0770224.shtml'
p147
aS'http://finance.sina.com.cn/roll/2016-12-06/doc-ifxyicnf1715046.shtml'
p148
aS'http://finance.sina.com.cn/chanjing/gsnews/2016-12-06/doc-ifxyiayr9212015.shtml'
p149
aS'http://finance.sina.com.cn/chanjing/gsnews/2016-12-06/doc-ifxyiayq2503396.shtml'
p150
aS'http://finance.sina.com.cn/chanjing/cyxw/2016-12-06/doc-ifxyicnf1668452.shtml'
p151
aS'http://finance.sina.com.cn/stock/jsy/2016-12-06/doc-ifxyiayr9248344.shtml'
p152
aS'http://finance.sina.com.cn/stock/marketresearch/2016-12-06/doc-ifxyiayr9208482.shtml'
p153
aS'http://finance.sina.com.cn/roll/2016-12-06/doc-ifxyiayr9179940.shtml'
p154
aS'http://finance.sina.com.cn/money/bank/bank_hydt/2016-12-06/doc-ifxyiayr9190036.shtml'
p155
aS'http://finance.sina.com.cn/zl/stock/2016-12-06/zl-ifxyiayr9264422.shtml'
p156
aS'http://finance.sina.com.cn/stock/usstock/c/2016-12-06/doc-ifxyiayq2454106.shtml'
p157
aS'http://finance.sina.com.cn/stock/data/2016-12-06/doc-ifxyiayq2511140.shtml'
p158
aS'http://finance.sina.com.cn/stock/marketresearch/2016-12-06/doc-ifxyiayr9267647.shtml'
p159
aS'http://finance.sina.com.cn/stock/jsy/2016-12-06/doc-ifxyiayr9247866.shtml'
p160
aS'http://finance.sina.com.cn/stock/s/2016-12-06/doc-ifxyiayr9272036.shtml'
p161
aS'http://finance.sina.com.cn/stock/sdbk/2016-12-06/doc-ifxyiayr9256414.shtml'
p162
aS'http://finance.sina.com.cn/roll/2016-12-06/doc-ifxyicnf1662889.shtml'
p163
aS'http://finance.sina.com.cn/stock/t/2016-12-06/doc-ifxyicnf1733444.shtml'
p164
aS'http://finance.sina.com.cn/roll/2016-12-06/doc-ifxyiayq2429516.shtml'
p165
aS'http://finance.sina.com.cn/stock/yjdt/2016-12-06/doc-ifxyiayr9268643.shtml'
p166
aS'http://finance.sina.com.cn/money/fund/jjzl/2016-12-06/doc-ifxyicnf1679197.shtml'
p167
aS'http://finance.sina.com.cn/money/fund/jjzl/2016-12-06/doc-ifxyiayq2514949.shtml'
p168
aS'http://finance.sina.com.cn/stock/t/2016-12-06/doc-ifxyicnf1664425.shtml'
p169
aS'http://finance.sina.com.cn/money/smjj/smdt/2016-12-06/doc-ifxyiayq2494334.shtml'
p170
aS'http://finance.sina.com.cn/money/lczx/2016-12-06/details-ifxyiayr9198501.shtml'
p171
aS'http://finance.sina.com.cn/money/lczx/2016-12-06/details-ifxyiayr9190765.shtml'
p172
aS'http://finance.sina.com.cn/money/lczx/2016-12-06/details-ifxyiayq2450972.shtml'
p173
aS'http://finance.sina.com.cn/money/lczx/2016-12-06/details-ifxyiayr9193679.shtml'
p174
aS'http://finance.sina.com.cn/money/lczx/2016-12-06/details-ifxyiayq2448178.shtml'
p175
aS'http://finance.sina.com.cn/money/lczx/2016-12-06/details-ifxyiayq2449642.shtml'
p176
aS'http://finance.sina.com.cn/money/forex/datafx/2016-12-06/doc-ifxyhwyy0776878.shtml'
p177
aS'http://finance.sina.com.cn/money/forex/2016-12-06/doc-ifxyiayq2441810.shtml'
p178
aS'http://fashion.sina.com.cn/b/sk/2016-12-06/0700/doc-ifxyiayq2372723.shtml'
p179
aS'http://book.sina.com.cn/excerpt/rwws/2016-12-05/1153/doc-ifxyiayr9087681.shtml'
p180
aS'http://book.sina.com.cn/excerpt/rwws/2016-12-05/1132/doc-ifxyiayr9084332.shtml'
p181
aS'http://book.sina.com.cn/excerpt/rwws/2016-12-05/1122/doc-ifxyiayr9082812.shtml'
p182
aS'http://book.sina.com.cn/news/whxw/2016-12-05/doc-ifxyiayr9068823.shtml'
p183
aS'http://book.sina.com.cn/excerpt/rwws/2016-12-05/1149/doc-ifxyiayq2339096.shtml'
p184
aS'http://book.sina.com.cn/excerpt/rwws/2016-12-01/1146/doc-ifxyiayq1911802.shtml'
p185
aS'http://book.sina.com.cn/excerpt/rwws/2016-12-05/1146/doc-ifxyiayq2338692.shtml'
p186
aS'http://book.sina.com.cn/excerpt/rwws/2016-12-02/1102/doc-ifxyiayr8809853.shtml'
p187
aS'http://book.sina.com.cn/excerpt/qggs/2016-12-05/1934/doc-ifxyiayr9150325.shtml'
p188
aS'http://book.sina.com.cn/news/whxw/2016-12-02/doc-ifxyiayq2100832.shtml'
p189
aS'http://book.sina.com.cn/news/whxw/2016-12-05/doc-ifxyiayq2357818.shtml'
p190
aS'http://book.sina.com.cn/review/cbsp/2016-12-05/doc-ifxyiayr9092393.shtml'
p191
aS'http://city.sina.com.cn/focus/t/2016-12-05/103157575.html'
p192
aS'http://tech.sina.com.cn/d/i/2016-12-06/doc-ifxyiayr9196060.shtml'
p193
aS'http://tech.sina.com.cn/d/f/2016-12-06/doc-ifxyiayq2467568.shtml'
p194
aS'http://tech.sina.com.cn/t/2016-12-06/doc-ifxyiayr9173807.shtml'
p195
aS'http://tech.sina.com.cn/t/2016-12-06/doc-ifxyiayq2466045.shtml'
p196
aS'http://tech.sina.com.cn/t/2016-12-06/doc-ifxyhwyy0771539.shtml'
p197
aS'http://tech.sina.com.cn/i/2016-12-06/doc-ifxyiayq2474074.shtml'
p198
aS'http://tech.sina.com.cn/t/2016-12-06/doc-ifxyiayq2440277.shtml'
p199
aS'http://tech.sina.com.cn/it/2016-12-05/doc-ifxyiayq2380601.shtml'
p200
aS'http://tech.sina.com.cn/d/i/2016-12-06/doc-ifxyiayq2448497.shtml'
p201
aS'http://tech.sina.com.cn/d/i/2016-12-06/doc-ifxyiayq2450976.shtml'
p202
aS'http://tech.sina.com.cn/d/n/2016-12-06/doc-ifxyiayq2465614.shtml'
p203
aS'http://tech.sina.com.cn/d/s/2016-12-06/doc-ifxyiayq2464801.shtml'
p204
aS'http://tech.sina.com.cn/d/i/2016-12-06/doc-ifxyiayr9216814.shtml'
p205
aS'http://games.sina.com.cn/g/g/2016-12-06/fxyiayr9210471.shtml'
p206
aS'http://games.sina.com.cn/g/g/2016-12-06/fxyiayq2467278.shtml'
p207
aS'http://games.sina.com.cn/t/n/2016-12-06/fxyiayq2463216.shtml'
p208
aS'http://games.sina.com.cn/ol/n/2016-12-05/fxyiayq2357786.shtml'
p209
aS'http://games.sina.com.cn/o/z/overwatch/2016-12-05/fxyiayr9077095.shtml'
p210
aS'http://games.sina.com.cn/ol/n/2016-12-05/fxyiayr9122512.shtml'
p211
aS'http://games.sina.com.cn/o/n/2016-12-03/fxyiayr8970371.shtml'
p212
aS'http://tech.sina.com.cn/mobile/n/n/2016-12-06/doc-ifxyiayr9185463.shtml'
p213
aS'http://tech.sina.com.cn/mobile/n/n/2016-12-06/doc-ifxyiayq2448103.shtml'
p214
aS'http://tech.sina.com.cn/mobile/n/n/2016-12-06/doc-ifxyiayr9184878.shtml'
p215
aS'http://tech.sina.com.cn/mobile/n/n/2016-12-06/doc-ifxyiayr9193369.shtml'
p216
aS'http://tech.sina.com.cn/mobile/n/n/2016-12-06/doc-ifxyiayr9191666.shtml'
p217
aS'http://tech.sina.com.cn/mobile/n/n/2016-12-06/doc-ifxyiayq2450408.shtml'
p218
aS'http://tech.sina.com.cn/mobile/n/n/2016-12-06/doc-ifxyiayr9192268.shtml'
p219
aS'http://tech.sina.com.cn/mobile/n/n/2016-12-06/doc-ifxyiayr9185133.shtml'
p220
aS'http://tech.sina.com.cn/mobile/n/n/2016-12-06/doc-ifxyiayq2420089.shtml'
p221
aS'http://tech.sina.com.cn/mobile/n/n/2016-12-06/doc-ifxyiayr9166478.shtml'
p222
aS'http://tech.sina.com.cn/mobile/n/n/2016-12-06/doc-ifxyiayq2421325.shtml'
p223
aS'http://tech.sina.com.cn/mobile/n/n/2016-12-06/doc-ifxyiayr9168023.shtml'
p224
aS'http://tech.sina.com.cn/mobile/n/n/2016-12-06/doc-ifxyiayq2422384.shtml'
p225
aS'http://tech.sina.com.cn/mobile/n/g/2016-12-06/doc-ifxyiayr9085656.shtml'
p226
aS'http://tech.sina.com.cn/mobile/n/g/2016-12-06/doc-ifxyiayr9079963.shtml'
p227
aS'http://tech.sina.com.cn/mobile/n/g/2016-12-06/doc-ifxyiayq2335552.shtml'
p228
aS'http://tech.sina.com.cn/mobile/n/g/2016-12-06/doc-ifxyiayr9078128.shtml'
p229
aS'http://tech.sina.com.cn/q/life/2016-12-05/doc-ifxyiayr9069680.shtml'
p230
aS'http://tech.sina.com.cn/e/z/2016-12-05/doc-ifxyiayq2302953.shtml'
p231
aS'http://tech.sina.com.cn/q/life/2016-12-05/doc-ifxyiayr9074974.shtml'
p232
aS'http://tech.sina.com.cn/n/k/2016-12-06/doc-ifxyiayq2447796.shtml'
p233
aS'http://tech.sina.com.cn/n/k/2016-12-06/doc-ifxyiayr9196713.shtml'
p234
aS'http://tech.sina.com.cn/digi/dc/q/2016-12-06/doc-ifxyiayq2440250.shtml'
p235
aS'http://tech.sina.com.cn/digi/dc/p/2016-12-06/doc-ifxyiayr9188862.shtml'
p236
aS'http://tech.sina.com.cn/e/2016-12-06/doc-ifxyiayq2443460.shtml'
p237
aS'http://tech.sina.com.cn/e/2016-12-06/doc-ifxyicnf1661211.shtml'
p238
aS'http://mil.news.sina.com.cn/china/2016-12-06/doc-ifxyiayr9199956.shtml'
p239
aS'http://mil.news.sina.com.cn/china/2016-12-06/doc-ifxyiayr9205613.shtml'
p240
aS'http://mil.news.sina.com.cn/jssd/2016-12-06/doc-ifxyiayr9215758.shtml'
p241
aS'http://mil.news.sina.com.cn/china/2016-12-06/doc-ifxyiayr9201967.shtml'
p242
aS'http://mil.news.sina.com.cn/jssd/2016-12-06/doc-ifxyiayr9230233.shtml'
p243
aS'http://mil.news.sina.com.cn/jssd/2016-12-06/doc-ifxyiayq2458002.shtml'
p244
aS'http://mil.news.sina.com.cn/china/2016-12-06/doc-ifxyiayr9208057.shtml'
p245
aS'http://mil.news.sina.com.cn/china/2016-12-06/doc-ifxyiayr9234086.shtml'
p246
aS'http://mil.news.sina.com.cn/china/2016-12-06/doc-ifxyicnf1679589.shtml'
p247
aS'http://mil.news.sina.com.cn/jssd/2016-12-06/doc-ifxyhwyy0813556.shtml'
p248
aS'http://news.sina.com.cn/s/wh/2016-12-06/doc-ifxyiayr9176380.shtml'
p249
aS'http://news.sina.com.cn/s/wh/2016-12-06/doc-ifxyiayq2433895.shtml'
p250
aS'http://news.sina.com.cn/s/wh/2016-12-06/doc-ifxyiayq2432469.shtml'
p251
aS'http://news.sina.com.cn/o/2016-12-06/doc-ifxyicnf1661709.shtml'
p252
aS'http://news.sina.com.cn/o/2016-12-06/doc-ifxyhwyy0771039.shtml'
p253
aS'http://news.sina.com.cn/o/2016-12-06/doc-ifxyicnf1660654.shtml'
p254
aS'http://news.sina.com.cn/o/2016-12-06/doc-ifxyhwyy0771016.shtml'
p255
aS'http://news.sina.com.cn/c/2016-12-05/doc-ifxyicnf1657624.shtml'
p256
aS'http://gongyi.sina.com.cn/gyzx/hg/2016-12-05/doc-ifxyiayr9074709.shtml'
p257
aS'http://gongyi.sina.com.cn/gyzx/pl/2016-12-02/doc-ifxyiayr8803096.shtml'
p258
aS'http://gongyi.sina.com.cn/gyzx/wm/2016-12-05/doc-ifxyiayr9077624.shtml'
p259
aS'http://gongyi.sina.com.cn/gyzx/wm/2016-12-05/doc-ifxyiayr9078374.shtml'
p260
aS'http://gongyi.sina.com.cn/gyzx/zy/2016-12-05/doc-ifxyiayq2330864.shtml'
p261
aS'http://news.sina.com.cn/green/roll/2016-12-06/doc-ifxyiayq2466297.shtml'
p262
aS'http://games.sina.com.cn/t/n/2016-12-06/fxyiayr9210344.shtml'
p263
aS'http://games.sina.com.cn/ol/n/2016-12-06/fxyiayq2467767.shtml'
p264
aS'http://games.sina.com.cn/t/n/2016-12-06/fxyiayq2463392.shtml'
p265
aS'http://games.sina.com.cn/o/z/hs/2016-12-06/fxyiayq2492560.shtml'
p266
aS'http://games.sina.com.cn/t/n/2016-12-06/fxyiayq2483875.shtml'
p267
aS'http://games.sina.com.cn/o/z/wow/2016-12-06/fxyiayq2486009.shtml'
p268
aS'http://games.sina.com.cn/t/n/2016-12-06/fxyiayr9226357.shtml'
p269
aS'http://games.sina.com.cn/ol/n/2016-12-06/fxyiayq2482388.shtml'
p270
aS'http://games.sina.com.cn/o/z/overwatch/2016-12-06/fxyiayq2479056.shtml'
p271
aS'http://games.sina.com.cn/g/g/2016-12-06/fxyiayq2475048.shtml'
p272
aS'http://games.sina.com.cn/g/g/2016-12-06/fxyiayq2479900.shtml'
p273
aS'http://games.sina.com.cn/g/g/2016-12-06/fxyiayq2480914.shtml'
p274
aS'http://games.sina.com.cn/o/z/lol/2016-12-05/fxyiayq2390613.shtml'
p275
aS'http://games.sina.com.cn/o/z/wow/2016-12-06/fxyiayq2491774.shtml'
p276
aS'http://games.sina.com.cn/g/p/2016-12-06/fxyiayq2501951.shtml'
p277
aS'http://games.sina.com.cn/o/z/lol/2016-12-06/fxyiayq2506913.shtml'
p278
aS'http://games.sina.com.cn/g/p/2016-12-06/fxyiayr9207644.shtml'
p279
aS'http://games.sina.com.cn/g/p/2016-12-05/fxyiayr9095589.shtml'
p280
aS'http://games.sina.com.cn/wjzx/ywts/2016-12-02/doc-ifxyiayq2106290.shtml'
p281
aS'http://games.sina.com.cn/yxbk/sy/2016-12-05/doc-ifxyiayr9111815.shtml'
p282
aS'http://games.sina.com.cn/yxbk/wy/2016-12-05/doc-ifxyiayr9106752.shtml'
p283
aS'http://eladies.sina.com.cn/news/star/2016-12-06/0710/doc-ifxyiayr9143611.shtml'
p284
aS'http://eladies.sina.com.cn/news/star/2016-12-06/0710/doc-ifxyiayr9125715.shtml'
p285
aS'http://fashion.sina.com.cn/l/ts/go/2016-12-06/0704/doc-ifxyiayq2353939.shtml'
p286
aS'http://fashion.sina.com.cn/d/ft/2016-12-06/0703/doc-ifxyiayq2091696.shtml'
p287
aS'http://fashion.sina.com.cn/s/ce/2016-12-06/0654/doc-ifxyiayq2380542.shtml'
p288
aS'http://fashion.sina.com.cn/s/in/2016-12-06/0655/doc-ifxyiayr9127196.shtml'
p289
aS'http://fashion.sina.com.cn/b/sk/2016-12-06/0701/doc-ifxyiayr9081895.shtml'
p290
aS'http://eladies.sina.com.cn/wzx/star/2016-12-06/0714/doc-ifxyiayr9149293.shtml'
p291
aS'http://eladies.sina.com.cn/news/star/2016-12-06/0709/doc-ifxyiayq2396717.shtml'
p292
aS'http://eladies.sina.com.cn/news/star/2016-12-06/0709/doc-ifxyiayq2391890.shtml'
p293
aS'http://eladies.sina.com.cn/news/star/2016-12-06/0709/doc-ifxyiayq2378303.shtml'
p294
aS'http://eladies.sina.com.cn/feel/xinli/2016-12-06/0712/doc-ifxyhwyy0579181.shtml'
p295
aS'http://eladies.sina.com.cn/feel/xinli/2016-12-06/0712/doc-ifxyicnf1532501.shtml'
p296
aS'http://eladies.sina.com.cn/feel/xinli/2016-12-06/0713/doc-ifxyiayq2391507.shtml'
p297
aS'http://eladies.sina.com.cn/feel/xinli/2016-12-05/1536/doc-ifxyhwyy0422308.shtml'
p298
aS'http://eladies.sina.com.cn/feel/xinli/2016-12-05/1535/doc-ifxyhwyy0398622.shtml'
p299
aS'http://eladies.sina.com.cn/news/star/2016-12-05/1650/doc-ifxyiayq2375181.shtml'
p300
aS'http://eladies.sina.com.cn/news/star/2016-12-05/1649/doc-ifxyiayq2315707.shtml'
p301
aS'http://eladies.sina.com.cn/news/star/2016-12-05/1036/doc-ifxyiayq2314884.shtml'
p302
aS'http://eladies.sina.com.cn/news/star/2016-12-05/1036/doc-ifxyiayr9061497.shtml'
p303
aS'http://eladies.sina.com.cn/feel/xinli/2016-12-05/1535/doc-ifxyicnf1325690.shtml'
p304
aS'http://eladies.sina.com.cn/feel/xinli/2016-12-05/1533/doc-ifxyawxa3199163.shtml'
p305
aS'http://eladies.sina.com.cn/feel/xinli/2016-12-05/1035/doc-ifxyawmp0678179.shtml'
p306
aS'http://eladies.sina.com.cn/feel/xinli/2016-12-05/1034/doc-ifxyiayr8745378.shtml'
p307
aS'http://eladies.sina.com.cn/news/star/2016-12-05/1650/doc-ifxyiayr9122945.shtml'
p308
aS'http://eladies.sina.com.cn/news/star/2016-12-05/1650/doc-ifxyiayq2375891.shtml'
p309
aS'http://fashion.sina.com.cn/we/lo/2016-12-06/0706/doc-ifxyhwyy0525769.shtml'
p310
aS'http://fashion.sina.com.cn/we/st/2016-12-05/0723/doc-ifxyiayr8719347.shtml'
p311
aS'http://edu.sina.com.cn/bschool/2016-12-05/doc-ifxyiayq2050910.shtml'
p312
aS'http://edu.sina.com.cn/gaokao/2016-12-05/doc-ifxyiayr9134845.shtml'
p313
aS'http://edu.sina.com.cn/gaokao/2016-12-05/doc-ifxyiayr9086621.shtml'
p314
aS'http://edu.sina.com.cn/kaoyan/2016-12-06/doc-ifxyiayr9218706.shtml'
p315
aS'http://edu.sina.com.cn/a/2016-12-06/doc-ifxyiayr9220199.shtml'
p316
aS'http://edu.sina.com.cn/a/2016-12-06/doc-ifxyiayq2524258.shtml'
p317
aS'http://edu.sina.com.cn/en/2016-12-06/doc-ifxyiayq2530672.shtml'
p318
aS'http://edu.sina.com.cn/en/2016-12-06/doc-ifxyiayr9273766.shtml'
p319
aS'http://edu.sina.com.cn/bschool/2016-12-06/doc-ifxyiayq2327016.shtml'
p320
aS'http://edu.sina.com.cn/bschool/2016-12-06/doc-ifxyiayr9082687.shtml'
p321
aS'http://edu.sina.com.cn/zxx/2016-12-06/doc-ifxyiayr8865280.shtml'
p322
aS'http://edu.sina.com.cn/ischool/2016-12-06/doc-ifxyiayr9078538.shtml'
p323
aS'http://edu.sina.com.cn/l/2016-12-02/doc-ifxyiayr8863935.shtml'
p324
aS'http://edu.sina.com.cn/gaokao/2016-12-05/doc-ifxyiayr9106071.shtml'
p325
aS'http://edu.sina.com.cn/gaokao/2016-12-06/doc-ifxyiayq2470407.shtml'
p326
aS'http://edu.sina.com.cn/gaokao/2016-12-02/doc-ifxyiayq2041239.shtml'
p327
aS'http://edu.sina.com.cn/gaokao/2016-12-05/doc-ifxyiayr9076610.shtml'
p328
aS'http://edu.sina.com.cn/gaokao/2016-12-06/doc-ifxyiayr9208186.shtml'
p329
aS'http://edu.sina.com.cn/l/2016-12-02/doc-ifxyiayr8873723.shtml'
p330
aS'http://baby.sina.com.cn/edu/szjy/eqt/2016-12-05/doc-ifxyiayr8807968.shtml'
p331
aS'http://baby.sina.com.cn/health/bbjk/hyieq/2016-12-06/doc-ifxyiayr9002236.shtml'
p332
aS'http://baby.sina.com.cn/edu/2016-12-05/doc-ifxyiayq2362426.shtml'
p333
aS'http://baby.sina.com.cn/edu/xlxwyy/2016-12-06/doc-ifxyiayq2324994.shtml'
p334
aS'http://baby.sina.com.cn/edu/jtjy/2016-12-06/doc-ifxyiayr9067898.shtml'
p335
aS'http://baby.sina.com.cn/edu/zj/eyoeq/2016-12-05/doc-ifxyiayq1900496.shtml'
p336
aS'http://baby.sina.com.cn/edu/jtjy/2016-12-06/doc-ifxyiayr9072377.shtml'
p337
aS'http://baby.sina.com.cn/edu/jtjy/2016-12-06/doc-ifxyiayr9073819.shtml'
p338
aS'http://baby.sina.com.cn/news/2016-12-06/doc-ifxyiayr9172545.shtml'
p339
aS'http://baby.sina.com.cn/ask/2016-12-05/doc-ifxyawmp0355160.shtml'
p340
aS'http://baby.sina.com.cn/health/mmjk/hhyq/2016-12-02/doc-ifxyiayq2038620.shtml'
p341
aS'http://baby.sina.com.cn/health/mmjk/hhyq/2016-12-01/doc-ifxyiayr8667727.shtml'
p342
aS'http://baby.sina.com.cn/health/mmjk/hzbhy/2016-12-06/doc-ifxyiayq2248949.shtml'
p343
aS'http://baby.sina.com.cn/health/mmjk/hhyq/2016-12-06/doc-ifxyiayr9004218.shtml'
p344
aS'http://baby.sina.com.cn/health/bbjk/hxlq/2016-12-06/doc-ifxyiayq2250191.shtml'
p345
aS'http://baby.sina.com.cn/health/mmjk/hzbhy/2016-12-06/doc-ifxyiayq2252287.shtml'
p346
aS'http://baby.sina.com.cn/health/hlbj/hjkcs/2016-12-06/doc-ifxyiayq2250978.shtml'
p347
aS'http://baby.sina.com.cn/health/mmjk/hhyq/2016-12-06/doc-ifxyiayq2382368.shtml'
p348
aS'http://baby.sina.com.cn/health/bbcjjb/hfs/2016-12-05/doc-ifxyiayr8603152.shtml'
p349
aS'http://baby.sina.com.cn/health/bbjk/hxlq/2016-12-06/doc-ifxyiayr9126417.shtml'
p350
aS'http://baby.sina.com.cn/nutrition/mstd/nmwsp/2016-12-05/doc-ifxyiayr9079812.shtml'
p351
aS'http://baby.sina.com.cn/nutrition/mstd/nmwsp/2016-12-05/doc-ifxyiayr9088239.shtml'
p352
aS'http://baby.sina.com.cn/nutrition/mstd/nmwsp/2016-12-05/doc-ifxyiayr9088352.shtml'
p353
aS'http://baby.sina.com.cn/news/2016-12-06/doc-ifxyiayr9172925.shtml'
p354
aS'http://baby.sina.com.cn/news/2016-12-06/doc-ifxyiayq2425304.shtml'
p355
aS'http://baby.sina.com.cn/news/2016-12-06/doc-ifxyiayr9165660.shtml'
p356
aS'http://fashion.sina.com.cn/s/ce/2016-12-06/0656/doc-ifxyiayr9090243.shtml'
p357
aS'http://fashion.sina.com.cn/b/mk/2016-12-06/0701/doc-ifxyiayr9108624.shtml'
p358
aS'http://fashion.sina.com.cn/luxury/taste/wine/2016-12-06/0705/doc-ifxyiayq2328600.shtml'
p359
aS'http://fashion.sina.com.cn/we/st/2016-12-06/0708/doc-ifxyicnf1428874.shtml'
p360
aS'http://fashion.sina.com.cn/s/je/2016-12-06/0702/doc-ifxyiayq2386720.shtml'
p361
aS'http://fashion.sina.com.cn/s/ce/2016-12-06/0656/doc-ifxyiayr9087455.shtml'
p362
aS'http://fashion.sina.com.cn/d/he/2016-12-06/0703/doc-ifxyiayq2079195.shtml'
p363
aS'http://fashion.sina.com.cn/d/ft/2016-12-06/0703/doc-ifxyiayr8851809.shtml'
p364
aS'http://fashion.sina.com.cn/l/wa/to/2016-12-06/0704/doc-ifxyiayr9128654.shtml'
p365
aS'http://fashion.sina.com.cn/we/st/2016-12-06/0707/doc-ifxyicnf1524789.shtml'
p366
aS'http://fashion.sina.com.cn/we/be/2016-12-06/0707/doc-ifxyhwyy0292370.shtml'
p367
aS'http://eladies.sina.com.cn/wzx/news/2016-12-06/0634/doc-ifxyhwyy0645905.shtml'
p368
aS'http://fashion.sina.com.cn/s/in/2016-12-06/0657/doc-ifxyiayr9120629.shtml'
p369
aS'http://fashion.sina.com.cn/b/sk/2016-12-05/0707/doc-ifxyawmp0536860.shtml'
p370
aS'http://travel.sina.com.cn/outbound/pages/2016-12-02/detail-ifxyiayr8867063.shtml'
p371
aS'http://travel.sina.com.cn/domestic/pages/2016-12-02/detail-ifxyicnf1308331.shtml'
p372
aS'http://travel.sina.com.cn/domestic/news/2016-12-05/detail-ifxyiayr9083789.shtml'
p373
aS'http://travel.sina.com.cn/domestic/news/2016-12-05/detail-ifxyiayq2381762.shtml'
p374
aS'http://collection.sina.com.cn/yjjj/2016-12-06/doc-ifxyiayr9226003.shtml'
p375
aS'http://collection.sina.com.cn/wjs/cpg/2016-12-06/doc-ifxyiayq2477550.shtml'
p376
aS'http://collection.sina.com.cn/auction/hqgc/2016-12-06/doc-ifxyiayq2444006.shtml'
p377
aS'http://collection.sina.com.cn/dfz/henan/yj/2016-12-06/doc-ifxyiayq2474920.shtml'
p378
aS'http://collection.sina.com.cn/yjjj/2016-12-06/doc-ifxyiayr9223710.shtml'
p379
aS'http://collection.sina.com.cn/yjjj/2016-12-06/doc-ifxyiayr9222429.shtml'
p380
aS'http://collection.sina.com.cn/cpsc/2016-12-06/doc-ifxyiayr9242207.shtml'
p381
aS'http://collection.sina.com.cn/cpsc/2016-12-06/doc-ifxyiayq2500420.shtml'
p382
aS'http://collection.sina.com.cn/yjjj/2016-12-06/doc-ifxyiayq2482510.shtml'
p383
aS'http://collection.sina.com.cn/ddys/zh/2016-12-06/doc-ifxyiayq2472493.shtml'
p384
aS'http://collection.sina.com.cn/auction/pcdt/2016-12-05/doc-ifxyiayq2417425.shtml'
p385
aS'http://collection.sina.com.cn/hwdt/2016-12-06/doc-ifxyiayq2478112.shtml'
p386
aS'http://collection.sina.com.cn/jjhm/yjzx/2016-12-06/doc-ifxyiayr9246417.shtml'
p387
aS'http://collection.sina.com.cn/jjhm/hmsc/2016-12-06/doc-ifxyiayq2502095.shtml'
p388
aS'http://collection.sina.com.cn/dfz/henan/yj/2016-12-06/doc-ifxyiayq2472014.shtml'
p389
aS'http://collection.sina.com.cn/yjjj/2016-12-06/doc-ifxyiayq2500616.shtml'
p390
aS'http://collection.sina.com.cn/cqyw/2016-12-06/doc-ifxyiayq2501309.shtml'
p391
aS'http://sports.sina.com.cn/golf/epgatour/2016-12-02/doc-ifxyiayr8863981.shtml'
p392
aS'http://sports.sina.com.cn/golf/jgto/2016-12-02/doc-ifxyiayr8836304.shtml'
p393
aS'http://sports.sina.com.cn/golf/asiantour/2016-12-02/doc-ifxyiayq2132761.shtml'
p394
aS'http://sports.sina.com.cn/golf/pgatour/2016-12-03/doc-ifxyiayr8900938.shtml'
p395
aS'http://sports.sina.com.cn/golf/pgatour/2016-12-03/doc-ifxyiayq2140917.shtml'
p396
aS'http://sports.sina.com.cn/golf/pgatour/2016-12-02/doc-ifxyiayr8811510.shtml'
p397
aS'http://sports.sina.com.cn/golf/asiantour/2016-12-02/doc-ifxyiayr8892699.shtml'
p398
aS'http://sports.sina.com.cn/golf/jgto/2016-12-02/doc-ifxyiayr8839280.shtml'
p399
aS'http://sports.sina.com.cn/golf/lpga/2016-12-02/doc-ifxyiayq2047844.shtml'
p400
aS'http://sports.sina.com.cn/golf/epgatour/2016-12-02/doc-ifxyiayq2095543.shtml'
p401
aS'http://sports.sina.com.cn/golf/jgto/2016-12-03/doc-ifxyiayq2141146.shtml'
p402
aS'http://sports.sina.com.cn/golf/pgatour/2016-12-02/doc-ifxyiayr8849243.shtml'
p403
aS'http://health.sina.com.cn/hc/s/2016-12-06/doc-ifxyiayq2086202.shtml'
p404
aS'http://health.sina.com.cn/hc/2016-12-06/doc-ifxyiayq2334285.shtml'
p405
aS'http://health.sina.com.cn/hc/2016-12-06/doc-ifxyiayr9100370.shtml'
p406
aS'http://health.sina.com.cn/d/2016-12-06/doc-ifxyiayr9131722.shtml'
p407
aS'http://health.sina.com.cn/d/2016-12-06/doc-ifxyiayr9130093.shtml'
p408
aS'http://health.sina.com.cn/hc/2016-12-06/doc-ifxyiayr9082389.shtml'
p409
aS'http://health.sina.com.cn/hc/2016-12-06/doc-ifxyiayq2334746.shtml'
p410
aS'http://health.sina.com.cn/hc/2016-12-05/doc-ifxyiayr8810300.shtml'
p411
aS'http://health.sina.com.cn/hc/2016-12-06/doc-ifxyiayr9100951.shtml'
p412
aS'http://health.sina.com.cn/hc/2016-12-06/doc-ifxyiayr9098406.shtml'
p413
aS'http://health.sina.com.cn/hc/2016-12-06/doc-ifxyiayr9101473.shtml'
p414
aS'http://health.sina.com.cn/d/2016-12-06/doc-ifxyiayq2383222.shtml'
p415
aS'http://health.sina.com.cn/d/2016-12-06/doc-ifxyiayq2383090.shtml'
p416
aS'http://health.sina.com.cn/hc/2016-12-06/doc-ifxyiayr9096758.shtml'
p417
aS'http://health.sina.com.cn/hc/2016-12-06/doc-ifxyiayr9082257.shtml'
p418
aS'http://health.sina.com.cn/d/2016-12-06/doc-ifxyiayq2383585.shtml'
p419
aS'http://health.sina.com.cn/hc/2016-12-06/doc-ifxyiayq2334518.shtml'
p420
aS'http://health.sina.com.cn/hc/2016-12-06/doc-ifxyiayq2351773.shtml'
p421
aS'http://health.sina.com.cn/d/2016-12-06/doc-ifxyiayr9130008.shtml'
p422
aS'http://vr.sina.com.cn/news/2016-12-01/doc-ifxyiayq1957676.shtml'
p423
aS'http://astro.sina.com.cn/t/2016-12-05/doc-ifxyiayq2342008.shtml'
p424
aS'http://astro.sina.com.cn/e/2016-12-05/doc-ifxyiayq2370088.shtml'
p425
aS'http://astro.sina.com.cn/v/ss/2016-12-05/doc-ifxyiayq2343313.shtml'
p426
a.