(lp1
S'http://sports.sina.com.cn/g/pl/2016-11-24/doc-ifxyawmm3207630.shtml'
p2
aS'http://sports.sina.com.cn/l/2016-11-21/doc-ifxxwrwk1592761.shtml'
p3
aS'http://sports.sina.com.cn/l/2016-11-21/doc-ifxxwrwh4846821.shtml'
p4
aS'http://sports.sina.com.cn/l/2016-11-24/doc-ifxyawmm3180817.shtml'
p5
aS'http://sports.sina.com.cn/l/2016-11-23/doc-ifxxwrwh4973623.shtml'
p6
aS'http://sports.sina.com.cn/g/pl/2016-11-24/doc-ifxyawmn9953019.shtml'
p7
aS'http://sports.sina.com.cn/g/pl/2016-11-23/doc-ifxxwrwk1720851.shtml'
p8
aS'http://sports.sina.com.cn/g/laliga/2016-11-24/doc-ifxyawmm3176087.shtml'
p9
aS'http://sports.sina.com.cn/china/other/2016-11-23/doc-ifxxwrwk1765181.shtml'
p10
aS'http://sports.sina.com.cn/g/pl/2016-11-23/doc-ifxxwrwh4980440.shtml'
p11
aS'http://sports.sina.com.cn/basketball/nba/2016-11-24/doc-ifxyawmn9950326.shtml'
p12
aS'http://sports.sina.com.cn/others/snooker/2016-11-23/doc-ifxxwrwh5016081.shtml'
p13
aS'http://sports.sina.com.cn/basketball/nba/2016-11-24/doc-ifxyawmn9974655.shtml'
p14
aS'http://sports.sina.com.cn/basketball/nba/2016-11-25/doc-ifxyawmp0059154.shtml'
p15
aS'http://sports.sina.com.cn/golf/gqzv/2016-11-26/doc-ifxyawmm3462506.shtml'
p16
aS'http://sports.sina.com.cn/golf/pgatour/2016-11-24/doc-ifxyawmm3254620.shtml'
p17
aS'http://sports.sina.com.cn/golf/pgatour/2016-11-23/doc-ifxxwrwh4992704.shtml'
p18
aS'http://sports.sina.com.cn/golf/industry/2016-11-21/doc-ifxxwrwh4817570.shtml'
p19
aS'http://sports.sina.com.cn/golf/jgto/2016-11-19/doc-ifxxwrwk1466770.shtml'
p20
aS'http://sports.sina.com.cn/motorracing/f1/newsall/2016-11-21/doc-ifxxwrwk1559367.shtml'
p21
aS'http://sports.sina.com.cn/motorracing/f1/2016-11-21/doc-ifxxwrwh4784903.shtml'
p22
aS'http://sports.sina.com.cn/motorracing/f1/2016-11-21/doc-ifxxwrwk1535097.shtml'
p23
aS'http://sports.sina.com.cn/motorracing/f1/newsall/2016-11-18/doc-ifxxwrwh4637889.shtml'
p24
aS'http://sports.sina.com.cn/g/laliga/2016-11-22/doc-ifxxwrwk1670739.shtml'
p25
aS'http://sports.sina.com.cn/l/2016-11-23/doc-ifxxwrwh4973885.shtml'
p26
aS'http://sports.sina.com.cn/basketball/nba/2016-11-22/doc-ifxxwrwk1632403.shtml'
p27
aS'http://sports.sina.com.cn/uclvideo/bn/2016-11-23/060165419841.html'
p28
aS'http://sports.sina.com.cn/basketball/nba/2016-11-22/doc-ifxxwrwh4910429.shtml'
p29
aS'http://sports.sina.com.cn/g/pl/2016-11-23/doc-ifxxwrwh4965264.shtml'
p30
aS'http://sports.sina.com.cn/g/laliga/2016-11-20/doc-ifxxwmws3293684.shtml'
p31
aS'http://sports.sina.com.cn/basketball/nba/2016-11-20/doc-ifxxwrwh4757575.shtml'
p32
aS'http://sports.sina.com.cn/l/2016-11-21/doc-ifxxwrwh4792721.shtml'
p33
aS'http://sports.sina.com.cn/china/j/2016-11-20/doc-ifxxwrwh4770928.shtml'
p34
aS'http://sports.sina.com.cn/cba/2016-11-20/doc-ifxxwrwh4779751.shtml'
p35
aS'http://sports.sina.com.cn/china/afccl/2016-11-21/doc-ifxxwsix4207792.shtml'
p36
aS'http://sports.sina.com.cn/basketball/nba/2016-11-21/doc-ifxxwrwh4792511.shtml'
p37
aS'http://sports.sina.com.cn/g/laliga/2016-11-21/doc-ifxxwrwh4801705.shtml'
p38
aS'http://sports.sina.com.cn/cba/2016-11-20/doc-ifxxwrwh4777156.shtml'
p39
aS'http://sports.sina.com.cn/basketball/nba/2016-11-21/doc-ifxxwrwk1546833.shtml'
p40
aS'http://sports.sina.com.cn/tennis/atp/2016-11-21/doc-ifxxwrwk1537667.shtml'
p41
aS'http://sports.sina.com.cn/basketball/nba/2016-11-21/doc-ifxxwrwk1537719.shtml'
p42
aS'http://sports.sina.com.cn/basketball/nba/2016-11-21/doc-ifxxwrwh4793482.shtml'
p43
aS'http://sports.sina.com.cn/others/volleyball/2016-11-20/doc-ifxxwrwh4777217.shtml'
p44
aS'http://sports.sina.com.cn/china/cfacup/2016-11-20/doc-ifxxwrwk1529713.shtml'
p45
aS'http://sports.sina.com.cn/tennis/atp/2016-11-20/doc-ifxxwrwk1509641.shtml'
p46
aS'http://sports.sina.com.cn/china/other/2016-11-20/doc-ifxxwrwk1521446.shtml'
p47
aS'http://sports.sina.com.cn/basketball/nba/2016-11-20/doc-ifxxwrwh4756703.shtml'
p48
aS'http://sports.sina.com.cn/cba/2016-11-20/doc-ifxxwrwh4769659.shtml'
p49
aS'http://sports.sina.com.cn/motorracing/f1/2016-11-18/doc-ifxxwrwk1373431.shtml'
p50
aS'http://sports.sina.com.cn/china/other/2016-11-20/doc-ifxxwrwh4739775.shtml'
p51
aS'http://sports.sina.com.cn/china/b/2016-11-20/doc-ifxxwrwh4761876.shtml'
p52
aS'http://sports.sina.com.cn/others/volleyball/2016-11-19/doc-ifxxwrwh4735968.shtml'
p53
aS'http://sports.sina.com.cn/global/germany/2016-11-19/doc-ifxxwrwh4689220.shtml'
p54
aS'http://sports.sina.com.cn/basketball/nba/2016-11-20/doc-ifxxwrwk1511344.shtml'
p55
aS'http://sports.sina.com.cn/basketball/nba/2016-11-20/doc-ifxxwrwh4757157.shtml'
p56
aS'http://sports.sina.com.cn/basketball/nba/2016-11-21/doc-ifxxwrwh4783159.shtml'
p57
aS'http://sports.sina.com.cn/others/volleyball/2016-11-20/doc-ifxxwrwk1531347.shtml'
p58
aS'http://sports.sina.com.cn/basketball/nba/2016-11-20/doc-ifxxwrwh4758095.shtml'
p59
aS'http://sports.sina.com.cn/go/2016-11-20/doc-ifxxwrwh4762638.shtml'
p60
aS'http://sports.sina.com.cn/global/germany/2016-11-20/doc-ifxxwrwh4740703.shtml'
p61
aS'http://sports.sina.com.cn/global/europe/2016-11-20/doc-ifxxwrwh4764669.shtml'
p62
aS'http://sports.sina.com.cn/motorracing/f1/2016-11-18/doc-ifxxwrwk1387878.shtml'
p63
aS'http://sports.sina.com.cn/g/laliga/2016-11-23/doc-ifxxwsix4433554.shtml'
p64
aS'http://sports.sina.com.cn/g/laliga/2016-11-23/doc-ifxxwrwh4978942.shtml'
p65
aS'http://sports.sina.com.cn/others/snooker/2016-11-23/doc-ifxxwrwh4969186.shtml'
p66
aS'http://sports.sina.com.cn/g/pl/2016-11-23/doc-ifxxwrwh5006197.shtml'
p67
aS'http://sports.sina.com.cn/g/pl/2016-11-23/doc-ifxxwrwh5004586.shtml'
p68
aS'http://sports.sina.com.cn/g/pl/2016-11-23/doc-ifxxwrwh4992926.shtml'
p69
aS'http://sports.sina.com.cn/g/pl/2016-11-23/doc-ifxxwrwk1723230.shtml'
p70
aS'http://sports.sina.com.cn/g/pl/2016-11-23/doc-ifxxwrwh4982174.shtml'
p71
aS'http://sports.sina.com.cn/basketball/nba/2016-11-23/doc-ifxxwrwk1708129.shtml'
p72
aS'http://sports.sina.com.cn/l/2016-11-22/doc-ifxxwrwk1695877.shtml'
p73
aS'http://sports.sina.com.cn/others/pingpang/2016-11-23/doc-ifxxwrwk1713434.shtml'
p74
aS'http://sports.sina.com.cn/others/volleyball/2016-11-22/doc-ifxxwrwh4960196.shtml'
p75
aS'http://sports.sina.com.cn/china/j/2016-11-23/doc-ifxxwrwk1745956.shtml'
p76
aS'http://sports.sina.com.cn/basketball/nba/2016-11-23/doc-ifxxwrwh5007286.shtml'
p77
aS'http://sports.sina.com.cn/china/j/2016-11-22/doc-ifxxwsix4416316.shtml'
p78
aS'http://sports.sina.com.cn/cba/2016-11-22/doc-ifxxwrwh4948827.shtml'
p79
aS'http://sports.sina.com.cn/motorracing/f1/newsall/2016-11-23/doc-ifxxwrwh4999617.shtml'
p80
aS'http://sports.sina.com.cn/china/national/2016-11-21/doc-ifxxwrwh4826287.shtml'
p81
aS'http://sports.sina.com.cn/basketball/nba/2016-11-21/doc-ifxxwrwk1567502.shtml'
p82
aS'http://sports.sina.com.cn/tennis/atp/2016-11-21/doc-ifxxwrwh4787104.shtml'
p83
aS'http://sports.sina.com.cn/china/j/2016-11-24/doc-ifxyawmn9961858.shtml'
p84
aS'http://sports.sina.com.cn/china/j/2016-11-24/doc-ifxyawmn9961104.shtml'
p85
aS'http://sports.sina.com.cn/china/j/2016-11-24/doc-ifxyawmn9960331.shtml'
p86
aS'http://sports.sina.com.cn/china/j/2016-11-24/doc-ifxyawmn9958302.shtml'
p87
aS'http://sports.sina.com.cn/others/others/2016-11-24/doc-ifxyawxa2591934.shtml'
p88
aS'http://sports.sina.com.cn/china/national/2016-11-24/doc-ifxyawmm3185465.shtml'
p89
aS'http://sports.sina.com.cn/china/national/2016-11-23/doc-ifxxwrwh5000711.shtml'
p90
aS'http://sports.sina.com.cn/g/2016-11-23/doc-ifxxwrwk1703907.shtml'
p91
aS'http://sports.sina.com.cn/others/volleyball/2016-11-22/doc-ifxxwsix4363536.shtml'
p92
aS'http://sports.sina.com.cn/others/volleyball/2016-11-23/doc-ifxxwrwh4993539.shtml'
p93
aS'http://sports.sina.com.cn/basketball/nba/2016-11-23/doc-ifxxwrwh5015949.shtml'
p94
aS'http://sports.sina.com.cn/others/volleyball/2016-11-23/doc-ifxxwsix4510864.shtml'
p95
aS'http://sports.sina.com.cn/g/pl/2016-11-24/doc-ifxyawmm3173406.shtml'
p96
aS'http://sports.sina.com.cn/g/pl/2016-11-23/doc-ifxxwrwh5008593.shtml'
p97
aS'http://sports.sina.com.cn/china/cfacup/2016-11-22/doc-ifxxwrwh4912196.shtml'
p98
aS'http://sports.sina.com.cn/g/2016-11-19/doc-ifxxwrwh4718125.shtml'
p99
aS'http://sports.sina.com.cn/china/b/2016-11-17/doc-ifxxwrwk1297982.shtml'
p100
aS'http://sports.sina.com.cn/china/2016-11-09/doc-ifxxnety7757670.shtml'
p101
aS'http://sports.sina.com.cn/china/j/2016-11-08/doc-ifxxneua4423866.shtml'
p102
aS'http://sports.sina.com.cn/china/j/2016-11-23/doc-ifxxwsix4510862.shtml'
p103
aS'http://sports.sina.com.cn/china/j/2016-11-23/doc-ifxxwrwh5007547.shtml'
p104
aS'http://sports.sina.com.cn/china/j/2016-11-23/doc-ifxxwrwh5004179.shtml'
p105
aS'http://sports.sina.com.cn/g/pl/2016-11-22/doc-ifxxwrwh4932922.shtml'
p106
aS'http://sports.sina.com.cn/basketball/nba/2016-11-23/doc-ifxxwrwk1738473.shtml'
p107
aS'http://sports.sina.com.cn/g/pl/2016-11-22/doc-ifxxwrwk1675591.shtml'
p108
aS'http://sports.sina.com.cn/basketball/nba/2016-11-23/doc-ifxxwmws3519660.shtml'
p109
aS'http://sports.sina.com.cn/g/pl/2016-11-23/doc-ifxxwrwh4981827.shtml'
p110
aS'http://sports.sina.com.cn/basketball/nba/2016-11-23/doc-ifxxwrwk1747155.shtml'
p111
aS'http://sports.sina.com.cn/basketball/nba/2016-11-23/doc-ifxxwrwk1712129.shtml'
p112
aS'http://sports.sina.com.cn/g/pl/2016-11-23/doc-ifxxwrwk1705961.shtml'
p113
aS'http://sports.sina.com.cn/others/volleyball/2016-11-22/doc-ifxxwrwk1694507.shtml'
p114
aS'http://sports.sina.com.cn/china/cfacup/2016-11-20/doc-ifxxwrwk1531823.shtml'
p115
aS'http://sports.sina.com.cn/g/laliga/2016-11-23/doc-ifxxwrwh4973749.shtml'
p116
aS'http://sports.sina.com.cn/cba/2016-11-22/doc-ifxxwrwh4900805.shtml'
p117
aS'http://sports.sina.com.cn/basketball/nba/2016-11-23/doc-ifxxwrwk1707817.shtml'
p118
aS'http://sports.sina.com.cn/g/pl/2016-11-22/doc-ifxxwrwh4911475.shtml'
p119
aS'http://sports.sina.com.cn/g/seriea/2016-11-23/doc-ifxxwrwh4968638.shtml'
p120
aS'http://sports.sina.com.cn/basketball/nba/2016-11-22/doc-ifxxwrwk1644870.shtml'
p121
aS'http://sports.sina.com.cn/others/volleyball/2016-11-22/doc-ifxxwmws3404825.shtml'
p122
aS'http://sports.sina.com.cn/china/j/2016-11-22/doc-ifxxwrwk1643507.shtml'
p123
aS'http://sports.sina.com.cn/basketball/nba/2016-11-22/doc-ifxxwrwk1676862.shtml'
p124
aS'http://sports.sina.com.cn/others/badmin/2016-11-22/doc-ifxxwrwk1654742.shtml'
p125
aS'http://sports.sina.com.cn/others/badmin/2016-11-22/doc-ifxxwsix4333924.shtml'
p126
aS'http://sports.sina.com.cn/l/2016-11-22/doc-ifxxwrwk1663634.shtml'
p127
aS'http://sports.sina.com.cn/basketball/nba/2016-11-22/doc-ifxxwrwh4878176.shtml'
p128
aS'http://sports.sina.com.cn/basketball/nba/2016-11-22/doc-ifxxwmws3416986.shtml'
p129
aS'http://sports.sina.com.cn/china/cfacup/2016-11-22/doc-ifxxwrwk1680436.shtml'
p130
aS'http://sports.sina.com.cn/basketball/nba/2016-11-22/doc-ifxxwrwh4900442.shtml'
p131
aS'http://sports.sina.com.cn/cba/2016-11-22/doc-ifxxwrwk1652363.shtml'
p132
aS'http://sports.sina.com.cn/g/laliga/2016-11-22/doc-ifxxwrwk1666239.shtml'
p133
aS'http://sports.sina.com.cn/basketball/nba/2016-11-22/doc-ifxxwrwk1626286.shtml'
p134
aS'http://sports.sina.com.cn/g/laliga/2016-11-22/doc-ifxxwrwk1619862.shtml'
p135
aS'http://sports.sina.com.cn/outdoor/2016-11-22/doc-ifxxwrwk1634604.shtml'
p136
aS'http://sports.sina.com.cn/g/laliga/2016-11-21/doc-ifxxwrwk1593089.shtml'
p137
aS'http://sports.sina.com.cn/others/pingpang/2016-11-22/doc-ifxxwsix4326025.shtml'
p138
aS'http://sports.sina.com.cn/other/2016-11-21/doc-ifxxwrwh4861352.shtml'
p139
aS'http://sports.sina.com.cn/others/pingpang/2016-11-21/doc-ifxxwrwk1582230.shtml'
p140
aS'http://sports.sina.com.cn/others/pingpang/2016-11-21/doc-ifxxwsix4240326.shtml'
p141
aS'http://sports.sina.com.cn/zz/2016-11-21/doc-ifxxwsix4230406.shtml'
p142
aS'http://sports.sina.com.cn/cba/2016-11-22/doc-ifxxwrwk1641279.shtml'
p143
aS'http://sports.sina.com.cn/g/pl/2016-11-22/doc-ifxxwrwk1621182.shtml'
p144
aS'http://sports.sina.com.cn/g/seriea/2016-11-21/doc-ifxxwsix4253885.shtml'
p145
aS'http://sports.sina.com.cn/g/seriea/2016-11-21/doc-ifxxwrwk1571575.shtml'
p146
aS'http://sports.sina.com.cn/g/seriea/2016-11-21/doc-ifxxwsix4208875.shtml'
p147
aS'http://sports.sina.com.cn/g/seriea/2016-11-21/doc-ifxxwsix4196897.shtml'
p148
aS'http://sports.sina.com.cn/g/laliga/2016-11-22/doc-ifxxwrwh4894893.shtml'
p149
aS'http://sports.sina.com.cn/basketball/nba/2016-11-21/doc-ifxxwrwk1595425.shtml'
p150
aS'http://sports.sina.com.cn/l/2016-11-22/doc-ifxxwrwh4881311.shtml'
p151
aS'http://sports.sina.com.cn/basketball/nba/2016-11-22/doc-ifxxwrwh4889704.shtml'
p152
aS'http://sports.sina.com.cn/l/2016-11-22/doc-ifxxwrwk1632839.shtml'
p153
aS'http://sports.sina.com.cn/basketball/nba/2016-11-22/doc-ifxxwrwh4897641.shtml'
p154
aS'http://sports.sina.com.cn/g/pl/2016-11-22/doc-ifxxwrwk1636494.shtml'
p155
aS'http://sports.sina.com.cn/g/laliga/2016-11-22/doc-ifxxwrwh4896347.shtml'
p156
aS'http://sports.sina.com.cn/g/laliga/2016-11-21/doc-ifxxwrwh4819414.shtml'
p157
aS'http://sports.sina.com.cn/basketball/nba/2016-11-22/doc-ifxxwrwh4875991.shtml'
p158
aS'http://sports.sina.com.cn/china/cfacup/2016-11-20/doc-ifxxwrwk1531662.shtml'
p159
aS'http://sports.sina.com.cn/others/volleyball/2016-11-21/doc-ifxxwrwh4863585.shtml'
p160
aS'http://sports.sina.com.cn/china/j/2016-11-21/doc-ifxxwrwh4857074.shtml'
p161
aS'http://sports.sina.com.cn/cba/2016-11-23/doc-ifxxwrwk1721864.shtml'
p162
aS'http://sports.sina.com.cn/cba/2016-11-23/doc-ifxxwsix4437710.shtml'
p163
aS'http://sports.sina.com.cn/cba/2016-11-22/doc-ifxxwrwk1689130.shtml'
p164
aS'http://sports.sina.com.cn/g/pl/2016-11-22/doc-ifxxwrwk1650870.shtml'
p165
aS'http://sports.sina.com.cn/basketball/nba/2016-11-23/doc-ifxxwrwk1715619.shtml'
p166
aS'http://sports.sina.com.cn/basketball/nba/2016-11-22/doc-ifxxwrwk1646432.shtml'
p167
aS'http://sports.sina.com.cn/l/2016-11-22/doc-ifxxwrwk1663277.shtml'
p168
aS'http://sports.sina.com.cn/others/volleyball/2016-11-23/doc-ifxxwrwh4965713.shtml'
p169
aS'http://sports.sina.com.cn/basketball/nba/2016-11-23/doc-ifxxwrwh4970199.shtml'
p170
aS'http://sports.sina.com.cn/basketball/nba/2016-11-22/doc-ifxxwrwk1639260.shtml'
p171
aS'http://sports.sina.com.cn/cba/2016-11-22/doc-ifxxwrwh4903653.shtml'
p172
aS'http://sports.sina.com.cn/g/pl/2016-11-23/doc-ifxxwrwk1714600.shtml'
p173
aS'http://sports.sina.com.cn/g/pl/2016-11-23/doc-ifxxwrwh4976152.shtml'
p174
aS'http://sports.sina.com.cn/cba/2016-11-22/doc-ifxxwrwk1640172.shtml'
p175
aS'http://sports.sina.com.cn/basketball/nba/2016-11-22/doc-ifxxwrwh4912404.shtml'
p176
aS'http://sports.sina.com.cn/basketball/nba/2016-11-22/doc-ifxxwrwh4906225.shtml'
p177
aS'http://sports.sina.com.cn/g/laliga/2016-11-22/doc-ifxxwrwh4904325.shtml'
p178
aS'http://sports.sina.com.cn/cba/2016-11-22/doc-ifxxwrwh4897092.shtml'
p179
aS'http://sports.sina.com.cn/g/laliga/2016-11-21/doc-ifxxwrwk1579879.shtml'
p180
aS'http://sports.sina.com.cn/china/j/2016-11-25/doc-ifxyawmm3300709.shtml'
p181
aS'http://sports.sina.com.cn/china/j/2016-11-25/doc-ifxyawmm3294292.shtml'
p182
aS'http://sports.sina.com.cn/china/j/2016-11-24/doc-ifxyawxa2644858.shtml'
p183
aS'http://sports.sina.com.cn/china/j/2016-11-24/doc-ifxyawmn9995657.shtml'
p184
aS'http://sports.sina.com.cn/china/j/2016-11-24/doc-ifxyasmv1719058.shtml'
p185
aS'http://sports.sina.com.cn/china/j/2016-11-24/doc-ifxyawmm3202090.shtml'
p186
aS'http://sports.sina.com.cn/china/j/2016-11-24/doc-ifxyawmn9972952.shtml'
p187
aS'http://sports.sina.com.cn/china/j/2016-11-24/doc-ifxyawmn9971352.shtml'
p188
aS'http://sports.sina.com.cn/g/pl/2016-11-25/doc-ifxyawmm3293987.shtml'
p189
aS'http://sports.sina.com.cn/china/j/2016-11-24/doc-ifxyawmm3196608.shtml'
p190
aS'http://sports.sina.com.cn/basketball/nba/2016-11-24/doc-ifxyawmn9970918.shtml'
p191
aS'http://sports.sina.com.cn/cba/2016-11-23/doc-ifxyawmm3169260.shtml'
p192
aS'http://sports.sina.com.cn/basketball/nba/2016-11-24/doc-ifxyawmn9973560.shtml'
p193
aS'http://sports.sina.com.cn/basketball/nba/2016-11-24/doc-ifxyawmm3219645.shtml'
p194
aS'http://sports.sina.com.cn/motorracing/chinaracing/other/2016-11-23/doc-ifxxwrwk1712187.shtml'
p195
aS'http://sports.sina.com.cn/motorracing/f1/2016-11-23/doc-ifxxwrwh4996683.shtml'
p196
aS'http://sports.sina.com.cn/motorracing/f1/newsall/2016-11-16/doc-ifxxsmif3167061.shtml'
p197
aS'http://sports.sina.com.cn/motorracing/f1/2016-11-14/doc-ifxxsmic6244157.shtml'
p198
aS'http://sports.sina.com.cn/cba/2016-11-23/doc-ifxyawmm3167939.shtml'
p199
aS'http://sports.sina.com.cn/g/pl/2016-11-23/doc-ifxxwrwk1716435.shtml'
p200
aS'http://sports.sina.com.cn/china/cfacup/2016-11-26/doc-ifxyawmm3475676.shtml'
p201
aS'http://sports.sina.com.cn/china/cfacup/2016-11-26/doc-ifxyawmp0237208.shtml'
p202
aS'http://sports.sina.com.cn/china/cfacup/2016-11-26/doc-ifxyawmm3471484.shtml'
p203
aS'http://sports.sina.com.cn/cba/2016-11-13/doc-ifxxsmic6156980.shtml'
p204
aS'http://sports.sina.com.cn/g/pl/2016-11-25/doc-ifxyasmv1803989.shtml'
p205
aS'http://sports.sina.com.cn/g/pl/2016-11-25/doc-ifxyawmp0082443.shtml'
p206
aS'http://sports.sina.com.cn/g/laliga/2016-11-26/doc-ifxyasmv1900071.shtml'
p207
aS'http://sports.sina.com.cn/g/laliga/2016-11-26/doc-ifxyawmp0222978.shtml'
p208
aS'http://sports.sina.com.cn/g/pl/2016-11-24/doc-ifxyawmn9950267.shtml'
p209
aS'http://sports.sina.com.cn/g/pl/2016-11-23/doc-ifxxwrwh4995234.shtml'
p210
aS'http://sports.sina.com.cn/g/pl/2016-11-23/doc-ifxxwrwh4994734.shtml'
p211
aS'http://sports.sina.com.cn/g/pl/2016-11-23/doc-ifxxwrwh4997674.shtml'
p212
aS'http://sports.sina.com.cn/basketball/nba/2016-11-23/doc-ifxxwrwk1739419.shtml'
p213
aS'http://sports.sina.com.cn/basketball/nba/2016-11-23/doc-ifxxwrwh5003249.shtml'
p214
aS'http://sports.sina.com.cn/g/seriea/2016-11-23/doc-ifxxwrwh4970306.shtml'
p215
aS'http://sports.sina.com.cn/g/laliga/2016-11-23/doc-ifxxwrwh4970264.shtml'
p216
aS'http://sports.sina.com.cn/china/cfacup/2016-11-23/doc-ifxxwrwk1722542.shtml'
p217
aS'http://sports.sina.com.cn/others/snooker/2016-11-28/doc-ifxyawmm3575963.shtml'
p218
aS'http://sports.sina.com.cn/others/snooker/2016-11-25/doc-ifxyawmm3380417.shtml'
p219
aS'http://sports.sina.com.cn/others/others/2016-11-24/doc-ifxyawmm3233362.shtml'
p220
aS'http://sports.sina.com.cn/l/2016-11-23/doc-ifxxwrwk1744854.shtml'
p221
aS'http://sports.sina.com.cn/others/others/2016-11-23/doc-ifxxwrwh4997038.shtml'
p222
aS'http://sports.sina.com.cn/g/pl/2016-11-28/doc-ifxyawmp0360484.shtml'
p223
aS'http://sports.sina.com.cn/basketball/nba/2016-11-28/doc-ifxyawmm3612595.shtml'
p224
aS'http://sports.sina.com.cn/basketball/nba/2016-11-28/doc-ifxyawmp0391794.shtml'
p225
aS'http://sports.sina.com.cn/tennis/atp/2016-11-16/doc-ifxxsmif3155982.shtml'
p226
aS'http://sports.sina.com.cn/tennis/atp/2016-11-16/doc-ifxxsmif3124541.shtml'
p227
aS'http://sports.sina.com.cn/tennis/atp/2016-11-14/doc-ifxxsmic6211224.shtml'
p228
aS'http://sports.sina.com.cn/china/j/2016-11-17/doc-ifxxwrwk1292539.shtml'
p229
aS'http://sports.sina.com.cn/basketball/nba/2016-11-17/doc-ifxxwrwh4530163.shtml'
p230
aS'http://sports.sina.com.cn/g/laliga/2016-11-17/doc-ifxxwmws2899528.shtml'
p231
aS'http://sports.sina.com.cn/cba/2016-11-16/doc-ifxxwrwk1264029.shtml'
p232
aS'http://sports.sina.com.cn/go/2016-11-16/doc-ifxxsmif3166797.shtml'
p233
aS'http://sports.sina.com.cn/basketball/nba/2016-11-17/doc-ifxxwrwk1301392.shtml'
p234
aS'http://sports.sina.com.cn/basketball/nba/2016-11-16/doc-ifxxsmic6438128.shtml'
p235
aS'http://sports.sina.com.cn/basketball/nba/2016-11-17/doc-ifxxwrwk1292210.shtml'
p236
aS'http://sports.sina.com.cn/basketball/nba/2016-11-17/doc-ifxxwrwh4530932.shtml'
p237
aS'http://sports.sina.com.cn/china/j/2016-11-17/doc-ifxxwrwh4526886.shtml'
p238
aS'http://sports.sina.com.cn/cba/2016-11-16/doc-ifxxwrwh4495624.shtml'
p239
aS'http://sports.sina.com.cn/china/national/2016-11-16/doc-ifxxsmic6412224.shtml'
p240
aS'http://sports.sina.com.cn/cba/2016-11-16/doc-ifxxsmif3145028.shtml'
p241
aS'http://sports.sina.com.cn/china/national/2016-11-16/doc-ifxxsmic6402773.shtml'
p242
aS'http://sports.sina.com.cn/t/2016-11-16/doc-ifxxsmif3143485.shtml'
p243
aS'http://sports.sina.com.cn/tennis/atp/2016-11-16/doc-ifxxsmif3119754.shtml'
p244
aS'http://sports.sina.com.cn/tennis/atp/2016-11-16/doc-ifxxsmic6390222.shtml'
p245
aS'http://sports.sina.com.cn/tennis/atp/2016-11-16/doc-ifxxsmif3126086.shtml'
p246
aS'http://ent.sina.com.cn/s/h/2016-11-16/doc-ifxxsmic6393351.shtml'
p247
aS'http://sports.sina.com.cn/l/2016-11-16/doc-ifxxsmic6388956.shtml'
p248
aS'http://sports.sina.com.cn/l/2016-11-16/doc-ifxxsmif3128366.shtml'
p249
aS'http://sports.sina.com.cn/china/national/2016-11-15/doc-ifxxsmif3111860.shtml'
p250
aS'http://sports.sina.com.cn/global/germany/2016-11-16/doc-ifxxsmif3124587.shtml'
p251
aS'http://sports.sina.com.cn/basketball/nba/2016-11-16/doc-ifxxsmif3123748.shtml'
p252
aS'http://sports.sina.com.cn/zl/football/2016-11-16/zldoc-ifxxsmic6391640.shtml'
p253
aS'http://sports.sina.com.cn/others/volleyball/2016-11-16/doc-ifxxsmif3135772.shtml'
p254
aS'http://sports.sina.com.cn/g/laliga/2016-11-16/doc-ifxxsmif3136018.shtml'
p255
aS'http://sports.sina.com.cn/china/national/2016-11-15/doc-ifxxsmic6368354.shtml'
p256
aS'http://sports.sina.com.cn/cba/2016-11-15/doc-ifxxsmif3086278.shtml'
p257
aS'http://sports.sina.com.cn/basketball/nba/2016-11-16/doc-ifxxsmic6378400.shtml'
p258
aS'http://sports.sina.com.cn/go/2016-11-16/doc-ifxxsmic6396924.shtml'
p259
aS'http://sports.sina.com.cn/basketball/nba/2016-11-16/doc-ifxxsmif3124642.shtml'
p260
aS'http://sports.sina.com.cn/global/germany/2016-11-14/doc-ifxxsfip4737404.shtml'
p261
aS'http://sports.sina.com.cn/cba/2016-11-15/doc-ifxxsmif3080731.shtml'
p262
aS'http://sports.sina.com.cn/go/2016-11-14/doc-ifxxsmif2980302.shtml'
p263
aS'http://sports.sina.com.cn/china/national/2016-11-14/doc-ifxxsmif3015147.shtml'
p264
aS'http://sports.sina.com.cn/basketball/nba/2016-11-22/doc-ifxxwrwh4872397.shtml'
p265
aS'http://sports.sina.com.cn/china/national/2016-11-21/doc-ifxxwrwh4865415.shtml'
p266
aS'http://sports.sina.com.cn/go/2016-11-21/doc-ifxxwrwk1592427.shtml'
p267
aS'http://sports.sina.com.cn/l/2016-11-21/doc-ifxxwrwk1604793.shtml'
p268
aS'http://sports.sina.com.cn/china/j/2016-11-22/doc-ifxxwrwk1644200.shtml'
p269
aS'http://sports.sina.com.cn/g/pl/2016-11-21/doc-ifxxwrwk1564233.shtml'
p270
aS'http://sports.sina.com.cn/cba/2016-11-20/doc-ifxxwrwh4779270.shtml'
p271
aS'http://sports.sina.com.cn/cba/2016-11-20/doc-ifxxwrwk1529082.shtml'
p272
aS'http://sports.sina.com.cn/cba/2016-11-20/doc-ifxxwrwk1506804.shtml'
p273
aS'http://sports.sina.com.cn/cba/2016-11-19/doc-ifxxwrwk1464607.shtml'
p274
aS'http://sports.sina.com.cn/g/laliga/2016-11-21/doc-ifxxwrwh4796933.shtml'
p275
aS'http://sports.sina.com.cn/china/j/2016-11-21/doc-ifxxwrwk1610567.shtml'
p276
aS'http://sports.sina.com.cn/basketball/nba/2016-11-22/doc-ifxxwrwh4908447.shtml'
p277
aS'http://sports.sina.com.cn/basketball/nba/2016-11-22/doc-ifxxwrwk1652132.shtml'
p278
aS'http://sports.sina.com.cn/g/laliga/2016-11-22/doc-ifxxwrwk1650021.shtml'
p279
aS'http://sports.sina.com.cn/tennis/wta/2016-11-22/doc-ifxxwrwh4897557.shtml'
p280
aS'http://sports.sina.com.cn/g/laliga/2016-11-22/doc-ifxxwrwh4900523.shtml'
p281
aS'http://sports.sina.com.cn/g/laliga/2016-11-22/doc-ifxxwrwh4890344.shtml'
p282
aS'http://sports.sina.com.cn/g/laliga/2016-11-22/doc-ifxxwrwk1628860.shtml'
p283
aS'http://sports.sina.com.cn/g/laliga/2016-11-22/doc-ifxxwrwh4885127.shtml'
p284
aS'http://sports.sina.com.cn/cba/2016-11-22/doc-ifxxwrwk1638237.shtml'
p285
aS'http://sports.sina.com.cn/cba/2016-11-20/doc-ifxxwrwh4781226.shtml'
p286
aS'http://sports.sina.com.cn/cba/2016-11-20/doc-ifxxwrwk1529552.shtml'
p287
aS'http://sports.sina.com.cn/cba/2016-11-20/doc-ifxxwrwh4777408.shtml'
p288
aS'http://sports.sina.com.cn/cba/2016-11-20/doc-ifxxwrwk1518541.shtml'
p289
aS'http://sports.sina.com.cn/l/2016-11-21/doc-ifxxwrwk1596568.shtml'
p290
aS'http://sports.sina.com.cn/l/2016-11-21/doc-ifxxwrwk1580018.shtml'
p291
aS'http://sports.sina.com.cn/l/2016-11-21/doc-ifxxwrwk1576336.shtml'
p292
aS'http://sports.sina.com.cn/l/2016-11-21/doc-ifxxwrwk1560674.shtml'
p293
aS'http://sports.sina.com.cn/l/2016-11-21/doc-ifxxwrwh4809954.shtml'
p294
aS'http://sports.sina.com.cn/g/laliga/2016-11-21/doc-ifxxwmws3304196.shtml'
p295
aS'http://sports.sina.com.cn/g/laliga/2016-11-21/doc-ifxxwrwh4808598.shtml'
p296
aS'http://sports.sina.com.cn/basketball/nba/2016-11-21/doc-ifxxwrwk1564514.shtml'
p297
aS'http://sports.sina.com.cn/basketball/nba/2016-11-21/doc-ifxxwrwh4820794.shtml'
p298
aS'http://sports.sina.com.cn/basketball/nba/2016-11-21/doc-ifxxwrwh4812533.shtml'
p299
aS'http://sports.sina.com.cn/l/2016-11-20/doc-ifxxwrwh4776718.shtml'
p300
aS'http://sports.sina.com.cn/basketball/nba/2016-11-21/doc-ifxxwrwk1550809.shtml'
p301
aS'http://sports.sina.com.cn/basketball/nba/2016-11-21/doc-ifxxwrwh4807996.shtml'
p302
aS'http://sports.sina.com.cn/basketball/nba/2016-11-21/doc-ifxxwrwh4795611.shtml'
p303
aS'http://sports.sina.com.cn/china/j/2016-11-21/doc-ifxxwrwh4819478.shtml'
p304
aS'http://sports.sina.com.cn/others/volleyball/2016-11-21/doc-ifxxwmws3320742.shtml'
p305
aS'http://sports.sina.com.cn/global/others/2016-11-21/doc-ifxxwsix4209692.shtml'
p306
aS'http://sports.sina.com.cn/cba/2016-11-20/doc-ifxxwrwk1529828.shtml'
p307
aS'http://sports.sina.com.cn/others/volleyball/2016-11-21/doc-ifxxwrwk1605622.shtml'
p308
aS'http://sports.sina.com.cn/basketball/nba/2016-11-21/doc-ifxxwrwk1565569.shtml'
p309
aS'http://sports.sina.com.cn/g/pl/2016-11-21/doc-ifxxwrwk1542831.shtml'
p310
aS'http://sports.sina.com.cn/cba/2016-11-21/doc-ifxxwrwk1548875.shtml'
p311
aS'http://sports.sina.com.cn/basketball/nba/2016-11-21/doc-ifxxwrwh4827553.shtml'
p312
aS'http://sports.sina.com.cn/china/cfacup/2016-11-20/doc-ifxxwrwh4777378.shtml'
p313
aS'http://sports.sina.com.cn/g/laliga/2016-11-21/doc-ifxxwrwk1552960.shtml'
p314
aS'http://sports.sina.com.cn/basketball/nba/2016-11-21/doc-ifxxwrwk1542137.shtml'
p315
aS'http://sports.sina.com.cn/go/2016-11-21/doc-ifxxwrwh4821132.shtml'
p316
aS'http://sports.sina.com.cn/basketball/nba/2016-11-21/doc-ifxxwrwk1535382.shtml'
p317
aS'http://sports.sina.com.cn/china/cfacup/2016-11-20/doc-ifxxwrwk1520504.shtml'
p318
aS'http://sports.sina.com.cn/china/j/2016-11-20/doc-ifxxwrwk1497708.shtml'
p319
aS'http://sports.sina.com.cn/china/cfacup/2016-11-19/doc-ifxxwsix4147446.shtml'
p320
aS'http://sports.sina.com.cn/outdoor/2016-11-21/doc-ifxxwrwk1585256.shtml'
p321
aS'http://sports.sina.com.cn/outdoor/2016-11-21/doc-ifxxwrwh4829811.shtml'
p322
aS'http://sports.sina.com.cn/outdoor/2016-11-21/doc-ifxxwrwk1559058.shtml'
p323
aS'http://sports.sina.com.cn/outdoor/2016-11-18/doc-ifxxwrwh4647873.shtml'
p324
aS'http://sports.sina.com.cn/others/swim/2016-11-18/doc-ifxxwsix4013484.shtml'
p325
aS'http://sports.sina.com.cn/g/laliga/2016-11-21/doc-ifxxwsix4248703.shtml'
p326
aS'http://sports.sina.com.cn/other/2016-11-21/doc-ifxxwrwk1591825.shtml'
p327
aS'http://sports.sina.com.cn/g/pl/2016-11-21/doc-ifxxwrwh4834102.shtml'
p328
aS'http://sports.sina.com.cn/g/laliga/2016-11-21/doc-ifxxwrwh4830907.shtml'
p329
aS'http://sports.sina.com.cn/g/pl/2016-11-21/doc-ifxxwrwk1572231.shtml'
p330
aS'http://sports.sina.com.cn/basketball/nba/2016-11-21/doc-ifxxwrwk1548495.shtml'
p331
aS'http://sports.sina.com.cn/basketball/nba/2016-11-21/doc-ifxxwrwh4825547.shtml'
p332
aS'http://sports.sina.com.cn/g/pl/2016-11-20/doc-ifxxwrwh4776882.shtml'
p333
aS'http://sports.sina.com.cn/china/cfacup/2016-11-20/doc-ifxxwrwh4773260.shtml'
p334
aS'http://sports.sina.com.cn/g/seriea/2016-11-21/doc-ifxxwrwk1544678.shtml'
p335
aS'http://sports.sina.com.cn/china/cfacup/2016-11-21/doc-ifxxwrwh4785607.shtml'
p336
aS'http://sports.sina.com.cn/g/seriea/2016-11-21/doc-ifxxwrwk1537355.shtml'
p337
aS'http://sports.sina.com.cn/basketball/nba/2016-11-21/doc-ifxxwrwh4807508.shtml'
p338
aS'http://sports.sina.com.cn/others/swim/2016-11-20/doc-ifxxwrwk1523338.shtml'
p339
aS'http://sports.sina.com.cn/basketball/nba/2016-11-21/doc-ifxxwrwk1535773.shtml'
p340
aS'http://sports.sina.com.cn/g/laliga/2016-11-21/doc-ifxxwrwk1542239.shtml'
p341
aS'http://sports.sina.com.cn/basketball/nba/2016-11-21/doc-ifxxwrwk1539060.shtml'
p342
aS'http://sports.sina.com.cn/zz/2016-11-21/doc-ifxxwsix4230396.shtml'
p343
aS'http://sports.sina.com.cn/zz/2016-11-21/doc-ifxxwsix4230389.shtml'
p344
aS'http://sports.sina.com.cn/zz/2016-11-18/doc-ifxxwmws3122030.shtml'
p345
aS'http://sports.sina.com.cn/zz/2016-11-18/doc-ifxxwmws3122019.shtml'
p346
aS'http://sports.sina.com.cn/zz/2016-11-18/doc-ifxxwmws3122017.shtml'
p347
aS'http://sports.sina.com.cn/others/snooker/2016-11-21/doc-ifxxwrwh4790657.shtml'
p348
aS'http://sports.sina.com.cn/t/2016-11-21/doc-ifxxwrwk1538655.shtml'
p349
aS'http://sports.sina.com.cn/g/seriea/2016-11-21/doc-ifxxwrwh4783331.shtml'
p350
aS'http://sports.sina.com.cn/basketball/nba/2016-11-20/doc-ifxxwrwk1510230.shtml'
p351
aS'http://sports.sina.com.cn/basketball/nba/2016-11-20/doc-ifxxwrwk1507633.shtml'
p352
aS'http://sports.sina.com.cn/basketball/nba/2016-11-21/doc-ifxxwrwh4793380.shtml'
p353
aS'http://sports.sina.com.cn/china/cfacup/2016-11-20/doc-ifxxwrwk1529293.shtml'
p354
aS'http://sports.sina.com.cn/others/volleyball/2016-11-20/doc-ifxxwsix4192579.shtml'
p355
aS'http://sports.sina.com.cn/cba/2016-11-20/doc-ifxxwrwh4773740.shtml'
p356
aS'http://sports.sina.com.cn/zz/2016-11-17/doc-ifxxwmws3005829.shtml'
p357
aS'http://sports.sina.com.cn/zz/2016-11-17/doc-ifxxwsix3906199.shtml'
p358
aS'http://sports.sina.com.cn/zz/2016-11-17/doc-ifxxwsix3906197.shtml'
p359
aS'http://sports.sina.com.cn/g/laliga/2016-11-17/doc-ifxxwrwh4516778.shtml'
p360
aS'http://sports.sina.com.cn/others/badmin/2016-11-17/doc-ifxxwrwk1339284.shtml'
p361
aS'http://sports.sina.com.cn/o/2016-11-18/doc-ifxxwrwh4590498.shtml'
p362
aS'http://sports.sina.com.cn/china/national/2016-11-17/doc-ifxxwrwh4514655.shtml'
p363
aS'http://sports.sina.com.cn/basketball/nba/2016-11-17/doc-ifxxwrwk1311784.shtml'
p364
aS'http://sports.sina.com.cn/others/badmin/2016-11-18/doc-ifxxwsix3988881.shtml'
p365
aS'http://sports.sina.com.cn/others/volleyball/2016-11-17/doc-ifxxwrwh4517365.shtml'
p366
aS'http://sports.sina.com.cn/zz/2016-11-11/doc-ifxxsmuu5344046.shtml'
p367
aS'http://sports.sina.com.cn/zz/2016-11-08/doc-ifxxmyuk6218005.shtml'
p368
aS'http://sports.sina.com.cn/tennis/atp/2016-11-17/doc-ifxxwrwh4536714.shtml'
p369
aS'http://sports.sina.com.cn/tennis/atp/2016-11-17/doc-ifxxwrwh4534958.shtml'
p370
aS'http://sports.sina.com.cn/tennis/atp/2016-11-17/doc-ifxxwrwk1300851.shtml'
p371
aS'http://sports.sina.com.cn/g/laliga/2016-11-17/doc-ifxxwrwh4536091.shtml'
p372
aS'http://sports.sina.com.cn/cba/2016-11-16/doc-ifxxwrwk1268215.shtml'
p373
aS'http://sports.sina.com.cn/china/b/2016-11-17/doc-ifxxwrwh4536328.shtml'
p374
aS'http://sports.sina.com.cn/basketball/nba/2016-11-17/doc-ifxxwrwh4533502.shtml'
p375
aS'http://sports.sina.com.cn/cba/2016-11-16/doc-ifxxwrwh4496892.shtml'
p376
aS'http://sports.sina.com.cn/g/laliga/2016-11-17/doc-ifxxwrwh4514178.shtml'
p377
aS'http://sports.sina.com.cn/go/2016-11-17/doc-ifxxwrwh4522622.shtml'
p378
aS'http://sports.sina.com.cn/g/seriea/2016-11-17/doc-ifxxwsix3897528.shtml'
p379
aS'http://sports.sina.com.cn/others/badmin/2016-11-17/doc-ifxxwsix3920655.shtml'
p380
aS'http://sports.sina.com.cn/cba/2016-11-16/doc-ifxxwrwk1270501.shtml'
p381
aS'http://sports.sina.com.cn/cba/2016-11-14/doc-ifxxsmif2962390.shtml'
p382
aS'http://sports.sina.com.cn/cba/2016-11-14/doc-ifxxsmic6235189.shtml'
p383
aS'http://sports.sina.com.cn/china/national/2016-11-14/doc-ifxxsfip4658649.shtml'
p384
aS'http://sports.sina.com.cn/zz/2016-11-17/doc-ifxxwmws3005808.shtml'
p385
aS'http://sports.sina.com.cn/zz/2016-11-16/doc-ifxxsmuu5813586.shtml'
p386
aS'http://sports.sina.com.cn/zz/2016-11-16/doc-ifxxsmuu5813513.shtml'
p387
aS'http://sports.sina.com.cn/zz/2016-11-15/doc-ifxxsfip4826004.shtml'
p388
aS'http://sports.sina.com.cn/g/pl/2016-11-16/doc-ifxxsfip4894289.shtml'
p389
aS'http://sports.sina.com.cn/cba/2016-11-17/doc-ifxxwmws2976465.shtml'
p390
aS'http://sports.sina.com.cn/basketball/nba/2016-11-16/doc-ifxxsmic6403957.shtml'
p391
aS'http://sports.sina.com.cn/basketball/nba/2016-11-16/doc-ifxxsmif3147443.shtml'
p392
aS'http://sports.sina.com.cn/basketball/nba/2016-11-17/doc-ifxxwrwk1280165.shtml'
p393
aS'http://sports.sina.com.cn/basketball/nba/2016-11-17/doc-ifxxwrwh4501061.shtml'
p394
aS'http://sports.sina.com.cn/basketball/nba/2016-11-16/doc-ifxxsmif3159446.shtml'
p395
aS'http://sports.sina.com.cn/g/pl/2016-11-16/doc-ifxxsmic6420740.shtml'
p396
aS'http://sports.sina.com.cn/cba/2016-11-16/doc-ifxxwrwk1265751.shtml'
p397
aS'http://sports.sina.com.cn/go/2016-11-16/doc-ifxxsmic6440656.shtml'
p398
aS'http://sports.sina.com.cn/go/2016-11-16/doc-ifxxsmic6439938.shtml'
p399
aS'http://sports.sina.com.cn/tennis/atp/2016-11-16/doc-ifxxsmif3157629.shtml'
p400
aS'http://sports.sina.com.cn/basketball/nba/2016-11-16/doc-ifxxsmic6410395.shtml'
p401
aS'http://sports.sina.com.cn/china/j/2016-11-15/doc-ifxxsmif3114893.shtml'
p402
aS'http://sports.sina.com.cn/basketball/nba/2016-11-16/doc-ifxxsmic6419795.shtml'
p403
aS'http://sports.sina.com.cn/g/pl/2016-11-16/doc-ifxxsmif3141728.shtml'
p404
aS'http://sports.sina.com.cn/china/national/2016-11-16/doc-ifxxsfip4888882.shtml'
p405
aS'http://sports.sina.com.cn/china/national/2016-11-15/doc-ifxxsmif3114644.shtml'
p406
aS'http://sports.sina.com.cn/basketball/nba/2016-11-16/doc-ifxxsmif3123948.shtml'
p407
aS'http://sports.sina.com.cn/basketball/nba/2016-11-16/doc-ifxxsmic6415700.shtml'
p408
aS'http://sports.sina.com.cn/others/snooker/2016-11-16/doc-ifxxsmif3118908.shtml'
p409
aS'http://sports.sina.com.cn/tennis/wta/2016-11-15/doc-ifxxsmif3053345.shtml'
p410
aS'http://sports.sina.com.cn/l/2016-11-25/doc-ifxyawmp0139692.shtml'
p411
aS'http://sports.sina.com.cn/l/2016-11-25/doc-ifxyawmp0135745.shtml'
p412
aS'http://sports.sina.com.cn/l/2016-11-25/doc-ifxyawmm3364794.shtml'
p413
aS'http://sports.sina.com.cn/l/2016-11-25/doc-ifxyawmm3364569.shtml'
p414
aS'http://sports.sina.com.cn/l/2016-11-25/doc-ifxyawmm3324734.shtml'
p415
aS'http://sports.sina.com.cn/l/2016-11-25/doc-ifxyawmp0094640.shtml'
p416
aS'http://sports.sina.com.cn/l/2016-11-25/doc-ifxyawmm3322593.shtml'
p417
aS'http://sports.sina.com.cn/l/2016-11-25/doc-ifxyawmp0093436.shtml'
p418
aS'http://sports.sina.com.cn/l/2016-11-25/doc-ifxyawmp0092991.shtml'
p419
aS'http://sports.sina.com.cn/l/2016-11-25/doc-ifxyawmm3334244.shtml'
p420
aS'http://sports.sina.com.cn/l/2016-11-25/doc-ifxyawmp0104997.shtml'
p421
aS'http://sports.sina.com.cn/l/2016-11-25/doc-ifxyawmp0102266.shtml'
p422
aS'http://sports.sina.com.cn/l/2016-11-25/doc-ifxyawmm3328571.shtml'
p423
aS'http://sports.sina.com.cn/l/2016-11-25/doc-ifxyawmm3326921.shtml'
p424
aS'http://sports.sina.com.cn/l/2016-11-25/doc-ifxyawmm3295698.shtml'
p425
aS'http://sports.sina.com.cn/l/2016-11-24/doc-ifxyawmm3277075.shtml'
p426
aS'http://sports.sina.com.cn/l/2016-11-24/doc-ifxyawmm3268003.shtml'
p427
aS'http://sports.sina.com.cn/l/2016-11-24/doc-ifxyawmp0006702.shtml'
p428
aS'http://sports.sina.com.cn/l/2016-11-24/doc-ifxyawmm3235581.shtml'
p429
aS'http://sports.sina.com.cn/l/2016-11-25/doc-ifxyawmm3314429.shtml'
p430
aS'http://sports.sina.com.cn/l/2016-11-25/doc-ifxyawmm3313971.shtml'
p431
aS'http://sports.sina.com.cn/g/seriea/2016-11-22/doc-ifxxwrwk1654703.shtml'
p432
aS'http://sports.sina.com.cn/g/seriea/2016-11-22/doc-ifxxwrwh4877982.shtml'
p433
aS'http://sports.sina.com.cn/g/seriea/2016-11-21/doc-ifxxwrwk1545274.shtml'
p434
aS'http://sports.sina.com.cn/g/pl/2016-11-25/doc-ifxyawmp0085102.shtml'
p435
aS'http://sports.sina.com.cn/g/pl/2016-11-25/doc-ifxyawmm3302382.shtml'
p436
aS'http://sports.sina.com.cn/g/pl/2016-11-24/doc-ifxyawmn9983800.shtml'
p437
aS'http://sports.sina.com.cn/g/pl/2016-11-24/doc-ifxyawmn9987979.shtml'
p438
aS'http://sports.sina.com.cn/g/pl/2016-11-25/doc-ifxyawmm3297227.shtml'
p439
aS'http://sports.sina.com.cn/g/pl/2016-11-25/doc-ifxyawmm3295893.shtml'
p440
aS'http://sports.sina.com.cn/g/pl/2016-11-25/doc-ifxyawmp0063992.shtml'
p441
aS'http://sports.sina.com.cn/g/pl/2016-11-23/doc-ifxxwrwk1713956.shtml'
p442
aS'http://sports.sina.com.cn/china/j/2016-11-24/doc-ifxyawmm3212107.shtml'
p443
aS'http://sports.sina.com.cn/basketball/nba/2016-11-24/doc-ifxyawmm3203949.shtml'
p444
aS'http://sports.sina.com.cn/basketball/nba/2016-11-24/doc-ifxyawmm3214506.shtml'
p445
aS'http://sports.sina.com.cn/cba/2016-11-23/doc-ifxyawmm3164422.shtml'
p446
aS'http://sports.sina.com.cn/basketball/nba/2016-11-24/doc-ifxyawmn9973887.shtml'
p447
aS'http://sports.sina.com.cn/g/laliga/2016-11-24/doc-ifxyawmm3187231.shtml'
p448
aS'http://sports.sina.com.cn/basketball/nba/2016-11-24/doc-ifxyawmm3194571.shtml'
p449
aS'http://sports.sina.com.cn/cba/2016-11-23/doc-ifxyawmn9941248.shtml'
p450
aS'http://sports.sina.com.cn/g/pl/2016-11-24/doc-ifxyawmm3189805.shtml'
p451
aS'http://sports.sina.com.cn/china/j/2016-11-23/doc-ifxyasmv1645062.shtml'
p452
aS'http://sports.sina.com.cn/cba/2016-11-24/doc-ifxyawmn9977205.shtml'
p453
aS'http://sports.sina.com.cn/cba/2016-11-24/doc-ifxyawmn9975194.shtml'
p454
aS'http://sports.sina.com.cn/cba/2016-11-24/doc-ifxyawmm3200644.shtml'
p455
aS'http://sports.sina.com.cn/cba/2016-11-24/doc-ifxyawmn9973041.shtml'
p456
aS'http://sports.sina.com.cn/cba/2016-11-24/doc-ifxyawmm3194899.shtml'
p457
aS'http://sports.sina.com.cn/cba/2016-11-24/doc-ifxyawmm3193679.shtml'
p458
aS'http://sports.sina.com.cn/cba/2016-11-24/doc-ifxyawmn9965046.shtml'
p459
aS'http://sports.sina.com.cn/basketball/nba/2016-11-23/doc-ifxyawmm3156741.shtml'
p460
aS'http://sports.sina.com.cn/l/2016-11-23/doc-ifxxwrwh4974180.shtml'
p461
aS'http://sports.sina.com.cn/china/j/2016-11-23/doc-ifxxwrwh5036391.shtml'
p462
aS'http://sports.sina.com.cn/china/j/2016-11-23/doc-ifxxwrwk1767674.shtml'
p463
aS'http://sports.sina.com.cn/china/j/2016-11-23/doc-ifxxwrwk1767085.shtml'
p464
aS'http://sports.sina.com.cn/g/pl/2016-11-22/doc-ifxxwmws3422515.shtml'
p465
aS'http://sports.sina.com.cn/g/laliga/2016-11-22/doc-ifxxwmws3505674.shtml'
p466
aS'http://sports.sina.com.cn/basketball/nba/2016-11-23/doc-ifxxwrwk1721415.shtml'
p467
aS'http://sports.sina.com.cn/basketball/nba/2016-11-23/doc-ifxxwsix4435518.shtml'
p468
aS'http://sports.sina.com.cn/basketball/nba/2016-11-23/doc-ifxxwrwh4977397.shtml'
p469
aS'http://sports.sina.com.cn/zz/2016-11-22/doc-ifxxwsix4346371.shtml'
p470
aS'http://sports.sina.com.cn/zz/2016-11-22/doc-ifxxwmws3468460.shtml'
p471
aS'http://sports.sina.com.cn/other/2016-11-21/doc-ifxxwrwk1540045.shtml'
p472
aS'http://ent.sina.com.cn/zl/bagua/2016-12-05/doc-ifxyiayq2320593.shtml'
p473
aS'http://ent.sina.com.cn/zl/discuss/2016-12-05/doc-ifxyiayq2325183.shtml'
p474
aS'http://ent.sina.com.cn/zl/bagua/2016-12-05/doc-ifxyiayr9071175.shtml'
p475
aS'http://ent.sina.com.cn/zl/bagua/2016-12-05/doc-ifxyiayr9065563.shtml'
p476
aS'http://ent.sina.com.cn/tv/zy/2016-12-05/doc-ifxyiayr9116764.shtml'
p477
aS'http://ent.sina.com.cn/tv/zy/2016-12-05/doc-ifxyiayr9126867.shtml'
p478
aS'http://finance.sina.com.cn/zl/stock/2016-12-05/zl-ifxyiayq2375492.shtml'
p479
aS'http://finance.sina.com.cn/zl/china/2016-12-06/zl-ifxyiayq2443349.shtml'
p480
aS'http://finance.sina.com.cn/zl/china/2016-12-06/zl-ifxyiayq2447146.shtml'
p481
aS'http://finance.sina.com.cn/zl/stock/2016-12-05/zl-ifxyiayq2374933.shtml'
p482
aS'http://finance.sina.com.cn/zl/china/2016-12-06/zl-ifxyiayq2442872.shtml'
p483
aS'http://finance.sina.com.cn/zl/bank/2016-12-06/zl-ifxyiayr9212940.shtml'
p484
aS'http://finance.sina.com.cn/zl/china/2016-12-06/zl-ifxyiayr9203160.shtml'
p485
aS'http://finance.sina.com.cn/zl/stock/2016-12-06/zl-ifxyiayq2459076.shtml'
p486
aS'http://finance.sina.com.cn/zl/hkstock/2016-12-06/zl-ifxyiayq2448557.shtml'
p487
aS'http://fashion.sina.com.cn/zl/style/blog/2016-12-02/15106005/1188369822/46d5159e0102x48u.shtml'
p488
a.